(lp0
(lp1
S'alas_r-alp_a-alas'
p2
acnumpy.core.multiarray
scalar
p3
(cnumpy
dtype
p4
(S'f8'
p5
I0
I1
tp6
Rp7
(I3
S'<'
p8
NNNI-1
I-1
I0
tp9
bS'\x03h(\x84\x98\x10\xe3?'
p10
tp11
Rp12
aa(lp13
S'alas_r-alp_a-alp'
p14
ag3
(g7
S'\xf1\x117\xee\x02+\xe2?'
p15
tp16
Rp17
aa(lp18
S'alas_r-alp_a-alsb'
p19
ag3
(g7
S'\x94\xf8#!\xdf\xdc\xe0?'
p20
tp21
Rp22
aa(lp23
S'alas_r-alp_a-gaas'
p24
ag3
(g7
S'=\xbc\xd2\xd2G\x19\xe3?'
p25
tp26
Rp27
aa(lp28
S'alas_r-alp_a-gap'
p29
ag3
(g7
S'\xdc\xe9\xdd=\x1d\x1b\xe2?'
p30
tp31
Rp32
aa(lp33
S'alas_r-alp_a-gasb'
p34
ag3
(g7
S'\x1d\xa4O\xe2R\xb9\xe2?'
p35
tp36
Rp37
aa(lp38
S'alas_r-alp_a-inas'
p39
ag3
(g7
S'\xe8\xfb\x8ei\x10\xeb\xe2?'
p40
tp41
Rp42
aa(lp43
S'alas_r-alp_a-inp'
p44
ag3
(g7
S'\xe2h\x91E\xd6\x87\xe1?'
p45
tp46
Rp47
aa(lp48
S'alas_r-alp_a-insb'
p49
ag3
(g7
S':\x07\xf9\xb6@\x9e\xe0?'
p50
tp51
Rp52
aa(lp53
S'alas_r-alsb_a-alas'
p54
ag3
(g7
S'\xea\xef\x11\x9e(\x1d\xfa?'
p55
tp56
Rp57
aa(lp58
S'alas_r-alsb_a-alp'
p59
ag3
(g7
S'\xf21\xcbCM\xeb\xfa?'
p60
tp61
Rp62
aa(lp63
S'alas_r-alsb_a-alsb'
p64
ag3
(g7
S'M`\xa0\xd35\x14\xfa?'
p65
tp66
Rp67
aa(lp68
S'alas_r-alsb_a-gaas'
p69
ag3
(g7
S'\xbb\xba@]\x1b#\xfa?'
p70
tp71
Rp72
aa(lp73
S'alas_r-alsb_a-gap'
p74
ag3
(g7
S'\x1ee\xcd\xcef]\xfa?'
p75
tp76
Rp77
aa(lp78
S'alas_r-alsb_a-gasb'
p79
ag3
(g7
S']\xdaF-\x98\n\xfa?'
p80
tp81
Rp82
aa(lp83
S'alas_r-alsb_a-inas'
p84
ag3
(g7
S'\xe4\xf3\xee\xc5\xf4\xa2\xf9?'
p85
tp86
Rp87
aa(lp88
S'alas_r-alsb_a-inp'
p89
ag3
(g7
S'\x91\x16\x90\xd1\x04T\xfa?'
p90
tp91
Rp92
aa(lp93
S'alas_r-alsb_a-insb'
p94
ag3
(g7
S't\x85\xc3\x1b~7\xf9?'
p95
tp96
Rp97
aa(lp98
S'alas_r-gaas_a-alas'
p99
ag3
(g7
S'(~\x9f}\xfah\xdd?'
p100
tp101
Rp102
aa(lp103
S'alas_r-gaas_a-alp'
p104
ag3
(g7
S'V"P\xfc\xa5\xe4\xdb?'
p105
tp106
Rp107
aa(lp108
S'alas_r-gaas_a-alsb'
p109
ag3
(g7
S'P/P\x83\xfdZ\xdd?'
p110
tp111
Rp112
aa(lp113
S'alas_r-gaas_a-gaas'
p114
ag3
(g7
S'\xa4\x19"\x05\x14i\xdd?'
p115
tp116
Rp117
aa(lp118
S'alas_r-gaas_a-gap'
p119
ag3
(g7
S'\x9b\x1b\xaf!\xfe\xcb\xdb?'
p120
tp121
Rp122
aa(lp123
S'alas_r-gaas_a-gasb'
p124
ag3
(g7
S'rB\xd8\xf3~(\xdd?'
p125
tp126
Rp127
aa(lp128
S'alas_r-gaas_a-inas'
p129
ag3
(g7
S'\xf2]\x80\xac_\xfe\xdc?'
p130
tp131
Rp132
aa(lp133
S'alas_r-gaas_a-inp'
p134
ag3
(g7
S'\x9c\x13\xdd\x1dNl\xde?'
p135
tp136
Rp137
aa(lp138
S'alas_r-gaas_a-insb'
p139
ag3
(g7
S'\n\xf1^/ft\xdd?'
p140
tp141
Rp142
aa(lp143
S'alas_r-gap_a-alas'
p144
ag3
(g7
S'\xd7\xe9\x85qg}\xe8?'
p145
tp146
Rp147
aa(lp148
S'alas_r-gap_a-alp'
p149
ag3
(g7
S'\xe7:\xb7 T\xb4\xe7?'
p150
tp151
Rp152
aa(lp153
S'alas_r-gap_a-alsb'
p154
ag3
(g7
S'o\x86\xe7\xc9\xc3\xb9\xea?'
p155
tp156
Rp157
aa(lp158
S'alas_r-gap_a-gaas'
p159
ag3
(g7
S'\xfdm>t\xfa|\xe8?'
p160
tp161
Rp162
aa(lp163
S'alas_r-gap_a-gap'
p164
ag3
(g7
S'\x15L\xc2\x85\x05\xa7\xe7?'
p165
tp166
Rp167
aa(lp168
S'alas_r-gap_a-gasb'
p169
ag3
(g7
S'\xe5\xe5\xe5\x80^\x88\xea?'
p170
tp171
Rp172
aa(lp173
S'alas_r-gap_a-inas'
p174
ag3
(g7
S'\x06UR`L\x9c\xea?'
p175
tp176
Rp177
aa(lp178
S'alas_r-gap_a-inp'
p179
ag3
(g7
S'\xf2\xa6\xa0\xd0V]\xe9?'
p180
tp181
Rp182
aa(lp183
S'alas_r-gap_a-insb'
p184
ag3
(g7
S'\x17\x86\xed\xc5{A\xec?'
p185
tp186
Rp187
aa(lp188
S'alas_r-gasb_a-alas'
p189
ag3
(g7
S'\xaazu\xf0\xd3\x18\xfd?'
p190
tp191
Rp192
aa(lp193
S'alas_r-gasb_a-alp'
p194
ag3
(g7
S'\x1f*N\x85\xb8\xf4\xfc?'
p195
tp196
Rp197
aa(lp198
S'alas_r-gasb_a-alsb'
p199
ag3
(g7
S'\xee\x93\x80v\xab@\xfb?'
p200
tp201
Rp202
aa(lp203
S'alas_r-gasb_a-gaas'
p204
ag3
(g7
S'\x9f!\x0f~g\x89\xfc?'
p205
tp206
Rp207
aa(lp208
S'alas_r-gasb_a-gap'
p209
ag3
(g7
S'\xfb~\xb1\xb7\x9c\xc5\xfd?'
p210
tp211
Rp212
aa(lp213
S'alas_r-gasb_a-gasb'
p214
ag3
(g7
S'E{\x8c\xb6\xaeS\xfb?'
p215
tp216
Rp217
aa(lp218
S'alas_r-gasb_a-inas'
p219
ag3
(g7
S'c\x0b\x19\x8cnP\xfb?'
p220
tp221
Rp222
aa(lp223
S'alas_r-gasb_a-inp'
p224
ag3
(g7
S'\x86\xc7L\xb8Q\x87\xfc?'
p225
tp226
Rp227
aa(lp228
S'alas_r-gasb_a-insb'
p229
ag3
(g7
S'\xbe\x81XO{\xcd\xfa?'
p230
tp231
Rp232
aa(lp233
S'alas_r-inas_a-alas'
p234
ag3
(g7
S'\xe8\x07\x8a\x92"B\xd8?'
p235
tp236
Rp237
aa(lp238
S'alas_r-inas_a-alp'
p239
ag3
(g7
S'\x1cl\x9a\xa3\xc1\x9e\xd9?'
p240
tp241
Rp242
aa(lp243
S'alas_r-inas_a-alsb'
p244
ag3
(g7
S'\x87z\x86K\xb7\xad\xd5?'
p245
tp246
Rp247
aa(lp248
S'alas_r-inas_a-gaas'
p249
ag3
(g7
S'\x89_+\x1e\x15\x15\xd7?'
p250
tp251
Rp252
aa(lp253
S'alas_r-inas_a-gap'
p254
ag3
(g7
S'q\xbf\xe4:\xa7\x92\xd8?'
p255
tp256
Rp257
aa(lp258
S'alas_r-inas_a-gasb'
p259
ag3
(g7
S'C0\xce\xa5\x9a\xd5\xd4?'
p260
tp261
Rp262
aa(lp263
S'alas_r-inas_a-inas'
p264
ag3
(g7
S'2\xd6\xf2\x1e`\n\xd5?'
p265
tp266
Rp267
aa(lp268
S'alas_r-inas_a-inp'
p269
ag3
(g7
S'\xdd\xfe\xe7\x18\x8a\xf6\xd5?'
p270
tp271
Rp272
aa(lp273
S'alas_r-inas_a-insb'
p274
ag3
(g7
S' \xe5a\xc2\x05G\xd3?'
p275
tp276
Rp277
aa(lp278
S'alas_r-inp_a-alas'
p279
ag3
(g7
S'\xdc\xfb&\x85@\xa0\xe6?'
p280
tp281
Rp282
aa(lp283
S'alas_r-inp_a-alp'
p284
ag3
(g7
S'|\x9d\x1a|\xdff\xe6?'
p285
tp286
Rp287
aa(lp288
S'alas_r-inp_a-alsb'
p289
ag3
(g7
S'I\xdaDFT\x7f\xe5?'
p290
tp291
Rp292
aa(lp293
S'alas_r-inp_a-gaas'
p294
ag3
(g7
S'\x8d\xd1f`\xbf\xdb\xe5?'
p295
tp296
Rp297
aa(lp298
S'alas_r-inp_a-gap'
p299
ag3
(g7
S'\x8c\xdfR\x90\tl\xe6?'
p300
tp301
Rp302
aa(lp303
S'alas_r-inp_a-gasb'
p304
ag3
(g7
S'^\x9f\x93\xcc\xcb\x98\xe5?'
p305
tp306
Rp307
aa(lp308
S'alas_r-inp_a-inas'
p309
ag3
(g7
S'U&\xb8\x8b\xbd\x14\xe5?'
p310
tp311
Rp312
aa(lp313
S'alas_r-inp_a-inp'
p314
ag3
(g7
S'FI\t\xc2\xff\x19\xe6?'
p315
tp316
Rp317
aa(lp318
S'alas_r-inp_a-insb'
p319
ag3
(g7
S'\xfa\xf5[\x9361\xe4?'
p320
tp321
Rp322
aa(lp323
S'alas_r-insb_a-alas'
p324
ag3
(g7
S'\xf0y\xde\x17[l\xfb?'
p325
tp326
Rp327
aa(lp328
S'alas_r-insb_a-alp'
p329
ag3
(g7
S'\t\x9b\xb0\n\xfd\x95\xfb?'
p330
tp331
Rp332
aa(lp333
S'alas_r-insb_a-alsb'
p334
ag3
(g7
S'\x13$Q\x9c\xe59\xfb?'
p335
tp336
Rp337
aa(lp338
S'alas_r-insb_a-gaas'
p339
ag3
(g7
S'\xbd5\x9c+\xb3o\xfb?'
p340
tp341
Rp342
aa(lp343
S'alas_r-insb_a-gap'
p344
ag3
(g7
S'\xd4\x8c\xfb`\x99\x9c\xfb?'
p345
tp346
Rp347
aa(lp348
S'alas_r-insb_a-gasb'
p349
ag3
(g7
S'b"\x0b\x86\xae\xa5\xfb?'
p350
tp351
Rp352
aa(lp353
S'alas_r-insb_a-inas'
p354
ag3
(g7
S'#\xab\x0b\xcd\xba+\xfb?'
p355
tp356
Rp357
aa(lp358
S'alas_r-insb_a-inp'
p359
ag3
(g7
S'F\xd3(\tuU\xfb?'
p360
tp361
Rp362
aa(lp363
S'alas_r-insb_a-insb'
p364
ag3
(g7
S'>\xed\xbd\xef\x8c.\xfb?'
p365
tp366
Rp367
aa(lp368
S'alp_r-alas_a-alas'
p369
ag3
(g7
S'\x03h(\x84\x98\x10\xe3?'
p370
tp371
Rp372
aa(lp373
S'alp_r-alas_a-alp'
p374
ag3
(g7
S'\xf1\x117\xee\x02+\xe2?'
p375
tp376
Rp377
aa(lp378
S'alp_r-alas_a-alsb'
p379
ag3
(g7
S'\x94\xf8#!\xdf\xdc\xe0?'
p380
tp381
Rp382
aa(lp383
S'alp_r-alas_a-gaas'
p384
ag3
(g7
S'=\xbc\xd2\xd2G\x19\xe3?'
p385
tp386
Rp387
aa(lp388
S'alp_r-alas_a-gap'
p389
ag3
(g7
S'\xdc\xe9\xdd=\x1d\x1b\xe2?'
p390
tp391
Rp392
aa(lp393
S'alp_r-alas_a-gasb'
p394
ag3
(g7
S'\x1d\xa4O\xe2R\xb9\xe2?'
p395
tp396
Rp397
aa(lp398
S'alp_r-alas_a-inas'
p399
ag3
(g7
S'\xe8\xfb\x8ei\x10\xeb\xe2?'
p400
tp401
Rp402
aa(lp403
S'alp_r-alas_a-inp'
p404
ag3
(g7
S'\xe2h\x91E\xd6\x87\xe1?'
p405
tp406
Rp407
aa(lp408
S'alp_r-alas_a-insb'
p409
ag3
(g7
S':\x07\xf9\xb6@\x9e\xe0?'
p410
tp411
Rp412
aa(lp413
S'alp_r-alsb_a-alas'
p414
ag3
(g7
S'k\xe6\xb8\x14\x9f\xc0\x01@'
p415
tp416
Rp417
aa(lp418
S'alp_r-alsb_a-alp'
p419
ag3
(g7
S'X\xc1\xd0d\x9c\xdd\x01@'
p420
tp421
Rp422
aa(lp423
S'alp_r-alsb_a-alsb'
p424
ag3
(g7
S'\x86\xb3E\xdd\x97\x1e\x01@'
p425
tp426
Rp427
aa(lp428
S'alp_r-alsb_a-gaas'
p429
ag3
(g7
S'Jmz\x9e\x96\xc5\x01@'
p430
tp431
Rp432
aa(lp433
S'alp_r-alsb_a-gap'
p434
ag3
(g7
S'r\xb2\xbb\x8f\xf7\x96\x01@'
p435
tp436
Rp437
aa(lp438
S'alp_r-alsb_a-gasb'
p439
ag3
(g7
S'rL\xa4\x99\x98\xa4\x01@'
p440
tp441
Rp442
aa(lp443
S'alp_r-alsb_a-inas'
p444
ag3
(g7
S'\x80[n\xf4S\x7f\x01@'
p445
tp446
Rp447
aa(lp448
S'alp_r-alsb_a-inp'
p449
ag3
(g7
S'\x1e\x18\x9aK\xdal\x01@'
p450
tp451
Rp452
aa(lp453
S'alp_r-alsb_a-insb'
p454
ag3
(g7
S'ff\xce\x96\xb8\xa4\x00@'
p455
tp456
Rp457
aa(lp458
S'alp_r-gaas_a-alas'
p459
ag3
(g7
S'@QjMuY\xe9?'
p460
tp461
Rp462
aa(lp463
S'alp_r-gaas_a-alp'
p464
ag3
(g7
S'KC\xa1,\xbez\xe7?'
p465
tp466
Rp467
aa(lp468
S'alp_r-gaas_a-alsb'
p469
ag3
(g7
S'^\x8b\x08\x8dC\xb8\xe4?'
p470
tp471
Rp472
aa(lp473
S'alp_r-gaas_a-gaas'
p474
ag3
(g7
S'\x19!\xff\xb0\xf5a\xe9?'
p475
tp476
Rp477
aa(lp478
S'alp_r-gaas_a-gap'
p479
ag3
(g7
S'\xa0\xf3lw\x08Z\xe7?'
p480
tp481
Rp482
aa(lp483
S'alp_r-gaas_a-gasb'
p484
ag3
(g7
S"\xa1\xd3\x15*\xee'\xe7?"
p485
tp486
Rp487
aa(lp488
S'alp_r-gaas_a-inas'
p489
ag3
(g7
S'\xec\x9eh\x84\xe61\xe7?'
p490
tp491
Rp492
aa(lp493
S'alp_r-gaas_a-inp'
p494
ag3
(g7
S'2\x15\xcd\xfb\x90W\xe7?'
p495
tp496
Rp497
aa(lp498
S'alp_r-gaas_a-insb'
p499
ag3
(g7
S'\x14\x12o\xa0\xb4L\xe3?'
p500
tp501
Rp502
aa(lp503
S'alp_r-gap_a-alas'
p504
ag3
(g7
S'\x1c}7\xe8\x15k\xdb?'
p505
tp506
Rp507
aa(lp508
S'alp_r-gap_a-alp'
p509
ag3
(g7
S'*\xbf\x18\xd8\x19\x87\xda?'
p510
tp511
Rp512
aa(lp513
S'alp_r-gap_a-alsb'
p514
ag3
(g7
S'gR\xdatk\n\xdb?'
p515
tp516
Rp517
aa(lp518
S'alp_r-gap_a-gaas'
p519
ag3
(g7
S'\x18\xd4l=\x87a\xdb?'
p520
tp521
Rp522
aa(lp523
S'alp_r-gap_a-gap'
p524
ag3
(g7
S'K\xd6\x9d\xeb\x89\x87\xda?'
p525
tp526
Rp527
aa(lp528
S'alp_r-gap_a-gasb'
p529
ag3
(g7
S'sx_1\xd49\xdd?'
p530
tp531
Rp532
aa(lp533
S'alp_r-gap_a-inas'
p534
ag3
(g7
S'El0\xb5c\xe2\xdc?'
p535
tp536
Rp537
aa(lp538
S'alp_r-gap_a-inp'
p539
ag3
(g7
S'\xa8\x1c\x01\x96\xf6\xb4\xda?'
p540
tp541
Rp542
aa(lp543
S'alp_r-gap_a-insb'
p544
ag3
(g7
S'\x83\x1a0\xfe`\x06\xdb?'
p545
tp546
Rp547
aa(lp548
S'alp_r-gasb_a-alas'
p549
ag3
(g7
S'h\x9f\xbe\xf74\x1f\x03@'
p550
tp551
Rp552
aa(lp553
S'alp_r-gasb_a-alp'
p554
ag3
(g7
S'<\x19\xac\xc5\xac\xc4\x02@'
p555
tp556
Rp557
aa(lp558
S'alp_r-gasb_a-alsb'
p559
ag3
(g7
S'\x96\xd7\xac\\\xc6\x9e\x01@'
p560
tp561
Rp562
aa(lp563
S'alp_r-gasb_a-gaas'
p564
ag3
(g7
S'\t\xdb\xfd\xe7\x8e\xde\x02@'
p565
tp566
Rp567
aa(lp568
S'alp_r-gasb_a-gap'
p569
ag3
(g7
S'\xb4\xc7\xb8$\xc8\x1f\x03@'
p570
tp571
Rp572
aa(lp573
S'alp_r-gasb_a-gasb'
p574
ag3
(g7
S'\xe7\xe7w\xd5\x10:\x02@'
p575
tp576
Rp577
aa(lp578
S'alp_r-gasb_a-inas'
p579
ag3
(g7
S'R\xa7x\xe9\xabD\x02@'
p580
tp581
Rp582
aa(lp583
S'alp_r-gasb_a-inp'
p584
ag3
(g7
S'\xa0\x92\xe2\xd2\x13e\x02@'
p585
tp586
Rp587
aa(lp588
S'alp_r-gasb_a-insb'
p589
ag3
(g7
S'\x08Dh\x1e\x8eM\x01@'
p590
tp591
Rp592
aa(lp593
S'alp_r-inas_a-alas'
p594
ag3
(g7
S'\xf8(\xc2tf?\xe9?'
p595
tp596
Rp597
aa(lp598
S'alp_r-inas_a-alp'
p599
ag3
(g7
S'\xdc\xf9w\x14\xe3\x8a\xe8?'
p600
tp601
Rp602
aa(lp603
S'alp_r-inas_a-alsb'
p604
ag3
(g7
S'\x08\xfe\x89\x9b\x10\x16\xe7?'
p605
tp606
Rp607
aa(lp608
S'alp_r-inas_a-gaas'
p609
ag3
(g7
S'\x92I\x14!-S\xe8?'
p610
tp611
Rp612
aa(lp613
S'alp_r-inas_a-gap'
p614
ag3
(g7
S'\xf5@\x18\x03\x04\xa5\xe7?'
p615
tp616
Rp617
aa(lp618
S'alp_r-inas_a-gasb'
p619
ag3
(g7
S'7\xf1\xb8\xe4\xffw\xe7?'
p620
tp621
Rp622
aa(lp623
S'alp_r-inas_a-inas'
p624
ag3
(g7
S'j\xfcp\xd2\xf6\x8e\xe7?'
p625
tp626
Rp627
aa(lp628
S'alp_r-inas_a-inp'
p629
ag3
(g7
S'\xfb,z\xe1s\xcc\xe6?'
p630
tp631
Rp632
aa(lp633
S'alp_r-inas_a-insb'
p634
ag3
(g7
S'\x8c\x11Xu7\xb6\xe6?'
p635
tp636
Rp637
aa(lp638
S'alp_r-inp_a-alas'
p639
ag3
(g7
S'p\xaee~\xc39\xd6?'
p640
tp641
Rp642
aa(lp643
S'alp_r-inp_a-alp'
p644
ag3
(g7
S'\x93\x082F\xf8\xcb\xd7?'
p645
tp646
Rp647
aa(lp648
S'alp_r-inp_a-alsb'
p649
ag3
(g7
S'\x89\x7f\xd6\x8d\xeb\x1b\xd5?'
p650
tp651
Rp652
aa(lp653
S'alp_r-inp_a-gaas'
p654
ag3
(g7
S'\x9d\xce\xac\x0f\xc5W\xd7?'
p655
tp656
Rp657
aa(lp658
S'alp_r-inp_a-gap'
p659
ag3
(g7
S'\x12\xae\x1av1\xeb\xd7?'
p660
tp661
Rp662
aa(lp663
S'alp_r-inp_a-gasb'
p664
ag3
(g7
S'\x06\xa3hl\xdf`\xd4?'
p665
tp666
Rp667
aa(lp668
S'alp_r-inp_a-inas'
p669
ag3
(g7
S'mx\xfb\xec>1\xd5?'
p670
tp671
Rp672
aa(lp673
S'alp_r-inp_a-inp'
p674
ag3
(g7
S'\xaa\xed\x8d\xb1 :\xd5?'
p675
tp676
Rp677
aa(lp678
S'alp_r-inp_a-insb'
p679
ag3
(g7
S'\x81\xda&\xf0\xa7\x9a\xd3?'
p680
tp681
Rp682
aa(lp683
S'alp_r-insb_a-alas'
p684
ag3
(g7
S'yx\x02c*\x1d\x02@'
p685
tp686
Rp687
aa(lp688
S'alp_r-insb_a-alp'
p689
ag3
(g7
S'\x04\xa59}\xd0\xe7\x01@'
p690
tp691
Rp692
aa(lp693
S'alp_r-insb_a-alsb'
p694
ag3
(g7
S'\x1b\x13\xb1\xc2A\x8d\x01@'
p695
tp696
Rp697
aa(lp698
S'alp_r-insb_a-gaas'
p699
ag3
(g7
S'U\xde1\x87\x99 \x02@'
p700
tp701
Rp702
aa(lp703
S'alp_r-insb_a-gap'
p704
ag3
(g7
S'lV\xaf\xe6~\xe5\x01@'
p705
tp706
Rp707
aa(lp708
S'alp_r-insb_a-gasb'
p709
ag3
(g7
S'1\xdc\xaf\x12\x1a-\x02@'
p710
tp711
Rp712
aa(lp713
S'alp_r-insb_a-inas'
p714
ag3
(g7
S'i\xb3\xf5\xcf\xe6\xfe\x01@'
p715
tp716
Rp717
aa(lp718
S'alp_r-insb_a-inp'
p719
ag3
(g7
S'\xc2\x17BiK\xb2\x01@'
p720
tp721
Rp722
aa(lp723
S'alp_r-insb_a-insb'
p724
ag3
(g7
S'\xe8/Q\x9c\xca\x8f\x01@'
p725
tp726
Rp727
aa(lp728
S'alsb_r-alas_a-alas'
p729
ag3
(g7
S'\xea\xef\x11\x9e(\x1d\xfa?'
p730
tp731
Rp732
aa(lp733
S'alsb_r-alas_a-alp'
p734
ag3
(g7
S'\xf21\xcbCM\xeb\xfa?'
p735
tp736
Rp737
aa(lp738
S'alsb_r-alas_a-alsb'
p739
ag3
(g7
S'M`\xa0\xd35\x14\xfa?'
p740
tp741
Rp742
aa(lp743
S'alsb_r-alas_a-gaas'
p744
ag3
(g7
S'\xbb\xba@]\x1b#\xfa?'
p745
tp746
Rp747
aa(lp748
S'alsb_r-alas_a-gap'
p749
ag3
(g7
S'\x1ee\xcd\xcef]\xfa?'
p750
tp751
Rp752
aa(lp753
S'alsb_r-alas_a-gasb'
p754
ag3
(g7
S']\xdaF-\x98\n\xfa?'
p755
tp756
Rp757
aa(lp758
S'alsb_r-alas_a-inas'
p759
ag3
(g7
S'\xe4\xf3\xee\xc5\xf4\xa2\xf9?'
p760
tp761
Rp762
aa(lp763
S'alsb_r-alas_a-inp'
p764
ag3
(g7
S'\x91\x16\x90\xd1\x04T\xfa?'
p765
tp766
Rp767
aa(lp768
S'alsb_r-alas_a-insb'
p769
ag3
(g7
S't\x85\xc3\x1b~7\xf9?'
p770
tp771
Rp772
aa(lp773
S'alsb_r-alp_a-alas'
p774
ag3
(g7
S'k\xe6\xb8\x14\x9f\xc0\x01@'
p775
tp776
Rp777
aa(lp778
S'alsb_r-alp_a-alp'
p779
ag3
(g7
S'X\xc1\xd0d\x9c\xdd\x01@'
p780
tp781
Rp782
aa(lp783
S'alsb_r-alp_a-alsb'
p784
ag3
(g7
S'\x86\xb3E\xdd\x97\x1e\x01@'
p785
tp786
Rp787
aa(lp788
S'alsb_r-alp_a-gaas'
p789
ag3
(g7
S'Jmz\x9e\x96\xc5\x01@'
p790
tp791
Rp792
aa(lp793
S'alsb_r-alp_a-gap'
p794
ag3
(g7
S'r\xb2\xbb\x8f\xf7\x96\x01@'
p795
tp796
Rp797
aa(lp798
S'alsb_r-alp_a-gasb'
p799
ag3
(g7
S'rL\xa4\x99\x98\xa4\x01@'
p800
tp801
Rp802
aa(lp803
S'alsb_r-alp_a-inas'
p804
ag3
(g7
S'\x80[n\xf4S\x7f\x01@'
p805
tp806
Rp807
aa(lp808
S'alsb_r-alp_a-inp'
p809
ag3
(g7
S'\x1e\x18\x9aK\xdal\x01@'
p810
tp811
Rp812
aa(lp813
S'alsb_r-alp_a-insb'
p814
ag3
(g7
S'ff\xce\x96\xb8\xa4\x00@'
p815
tp816
Rp817
aa(lp818
S'alsb_r-gaas_a-alas'
p819
ag3
(g7
S'^\xde\xed\x08\xb2t\xf9?'
p820
tp821
Rp822
aa(lp823
S'alsb_r-gaas_a-alp'
p824
ag3
(g7
S'K\x00\xa4fe\x95\xf9?'
p825
tp826
Rp827
aa(lp828
S'alsb_r-gaas_a-alsb'
p829
ag3
(g7
S'@\x96\xd8\xdd\x16Q\xfb?'
p830
tp831
Rp832
aa(lp833
S'alsb_r-gaas_a-gaas'
p834
ag3
(g7
S'\x0e\xf4\x96\xb2\xc6n\xf9?'
p835
tp836
Rp837
aa(lp838
S'alsb_r-gaas_a-gap'
p839
ag3
(g7
S'\xef\xc0\xc5\x1a\x890\xf9?'
p840
tp841
Rp842
aa(lp843
S'alsb_r-gaas_a-gasb'
p844
ag3
(g7
S'M\xb7:\xc4\x18+\xfb?'
p845
tp846
Rp847
aa(lp848
S'alsb_r-gaas_a-inas'
p849
ag3
(g7
S'\xa1\xae\xabfC\xd1\xfa?'
p850
tp851
Rp852
aa(lp853
S'alsb_r-gaas_a-inp'
p854
ag3
(g7
S'\x85\xd8,\x84\xeee\xfa?'
p855
tp856
Rp857
aa(lp858
S'alsb_r-gaas_a-insb'
p859
ag3
(g7
S'<\x96\xa0V\xda<\xfc?'
p860
tp861
Rp862
aa(lp863
S'alsb_r-gap_a-alas'
p864
ag3
(g7
S'\xca}\xc2\xa7(\x1a\x01@'
p865
tp866
Rp867
aa(lp868
S'alsb_r-gap_a-alp'
p869
ag3
(g7
S',3\x8a\x1f\xd2+\x01@'
p870
tp871
Rp872
aa(lp873
S'alsb_r-gap_a-alsb'
p874
ag3
(g7
S'\x0e\x08\x8a\xd6\xca\xcd\x01@'
p875
tp876
Rp877
aa(lp878
S'alsb_r-gap_a-gaas'
p879
ag3
(g7
S'\x81V\x7f&J\x1b\x01@'
p880
tp881
Rp882
aa(lp883
S'alsb_r-gap_a-gap'
p884
ag3
(g7
S'A\xc1\x00\xe2\x16\xf1\x00@'
p885
tp886
Rp887
aa(lp888
S'alsb_r-gap_a-gasb'
p889
ag3
(g7
S']\xd0$ME\xb7\x01@'
p890
tp891
Rp892
aa(lp893
S'alsb_r-gap_a-inas'
p894
ag3
(g7
S'\xe6Y{\xd4\xac\x99\x01@'
p895
tp896
Rp897
aa(lp898
S'alsb_r-gap_a-inp'
p899
ag3
(g7
S'\x13\x8e\xf3\x7fau\x01@'
p900
tp901
Rp902
aa(lp903
S'alsb_r-gap_a-insb'
p904
ag3
(g7
S'\\,\x8b\x86\x06R\x02@'
p905
tp906
Rp907
aa(lp908
S'alsb_r-gasb_a-alas'
p909
ag3
(g7
S'\xa1\xe2\xd05\x1b\x10\xde?'
p910
tp911
Rp912
aa(lp913
S'alsb_r-gasb_a-alp'
p914
ag3
(g7
S'\xf0\xd7<Cl5\xdd?'
p915
tp916
Rp917
aa(lp918
S'alsb_r-gasb_a-alsb'
p919
ag3
(g7
S'\x9c\xdb\xb2c\xde\x89\xdb?'
p920
tp921
Rp922
aa(lp923
S'alsb_r-gasb_a-gaas'
p924
ag3
(g7
S'\xd4\x18\x1a\xd8\x11;\xdd?'
p925
tp926
Rp927
aa(lp928
S'alsb_r-gasb_a-gap'
p929
ag3
(g7
S'\xb71\xe6\xb2\xd4a\xde?'
p930
tp931
Rp932
aa(lp933
S'alsb_r-gasb_a-gasb'
p934
ag3
(g7
S'!u\x1b\xae^\xee\xdb?'
p935
tp936
Rp937
aa(lp938
S'alsb_r-gasb_a-inas'
p939
ag3
(g7
S'\xa3\xef\x85\xb2\xa2C\xdc?'
p940
tp941
Rp942
aa(lp943
S'alsb_r-gasb_a-inp'
p944
ag3
(g7
S'($\x15\xf1\x8f\xc9\xdd?'
p945
tp946
Rp947
aa(lp948
S'alsb_r-gasb_a-insb'
p949
ag3
(g7
S'T\xaa\xcc\xd1\xf2u\xe0?'
p950
tp951
Rp952
aa(lp953
S'alsb_r-inas_a-alas'
p954
ag3
(g7
S'\xac\xf6\x1dVqq\xfb?'
p955
tp956
Rp957
aa(lp958
S'alsb_r-inas_a-alp'
p959
ag3
(g7
S'\xd1\xb9:\t|u\xfc?'
p960
tp961
Rp962
aa(lp963
S'alsb_r-inas_a-alsb'
p964
ag3
(g7
S'\xaf\x97\xbc\xaf\xde\xef\xfa?'
p965
tp966
Rp967
aa(lp968
S'alsb_r-inas_a-gaas'
p969
ag3
(g7
S'C\xb5\xd4\x9e\xb7\xe2\xfb?'
p970
tp971
Rp972
aa(lp973
S'alsb_r-inas_a-gap'
p974
ag3
(g7
S'\xb1\x9e\xb0\xf4aN\xfc?'
p975
tp976
Rp977
aa(lp978
S'alsb_r-inas_a-gasb'
p979
ag3
(g7
S'\xa4U\xe6\x1c2\x81\xfb?'
p980
tp981
Rp982
aa(lp983
S'alsb_r-inas_a-inas'
p984
ag3
(g7
S'a84F\xbb,\xfb?'
p985
tp986
Rp987
aa(lp988
S'alsb_r-inas_a-inp'
p989
ag3
(g7
S'\x11\xac\xa5\xc7|\xea\xfb?'
p990
tp991
Rp992
aa(lp993
S'alsb_r-inas_a-insb'
p994
ag3
(g7
S'\x02i\xcbr\x81d\xfa?'
p995
tp996
Rp997
aa(lp998
S'alsb_r-inp_a-alas'
p999
ag3
(g7
S'%O\x10\x86\x80\x99\x02@'
p1000
tp1001
Rp1002
aa(lp1003
S'alsb_r-inp_a-alp'
p1004
ag3
(g7
S'\x9eSo$\x81\xd0\x02@'
p1005
tp1006
Rp1007
aa(lp1008
S'alsb_r-inp_a-alsb'
p1009
ag3
(g7
S'z\xd2;N\xa3F\x02@'
p1010
tp1011
Rp1012
aa(lp1013
S'alsb_r-inp_a-gaas'
p1014
ag3
(g7
S'\xd7\xaa\xa2;wK\x02@'
p1015
tp1016
Rp1017
aa(lp1018
S'alsb_r-inp_a-gap'
p1019
ag3
(g7
S'2\x11}2\xa9\x8d\x02@'
p1020
tp1021
Rp1022
aa(lp1023
S'alsb_r-inp_a-gasb'
p1024
ag3
(g7
S'#\xa1\xe5\x99\x9fI\x02@'
p1025
tp1026
Rp1027
aa(lp1028
S'alsb_r-inp_a-inas'
p1029
ag3
(g7
S'\x9eW\x9e\x11G\xd0\x01@'
p1030
tp1031
Rp1032
aa(lp1033
S'alsb_r-inp_a-inp'
p1034
ag3
(g7
S'3\xdaH\x81S\x90\x02@'
p1035
tp1036
Rp1037
aa(lp1038
S'alsb_r-inp_a-insb'
p1039
ag3
(g7
S'0YM\x035P\x01@'
p1040
tp1041
Rp1042
aa(lp1043
S'alsb_r-insb_a-alas'
p1044
ag3
(g7
S'.h\xb2?#\xd1\xd9?'
p1045
tp1046
Rp1047
aa(lp1048
S'alsb_r-insb_a-alp'
p1049
ag3
(g7
S'\x86\xb2\xf9\x9fMz\xda?'
p1050
tp1051
Rp1052
aa(lp1053
S'alsb_r-insb_a-alsb'
p1054
ag3
(g7
S'\x87u\x05Z\x8dw\xd6?'
p1055
tp1056
Rp1057
aa(lp1058
S'alsb_r-insb_a-gaas'
p1059
ag3
(g7
S'\xa6\xcb`\xec~\n\xda?'
p1060
tp1061
Rp1062
aa(lp1063
S'alsb_r-insb_a-gap'
p1064
ag3
(g7
S'\xe8\x94i\x0cW]\xdb?'
p1065
tp1066
Rp1067
aa(lp1068
S'alsb_r-insb_a-gasb'
p1069
ag3
(g7
S'\x07\x87A\x9eme\xd7?'
p1070
tp1071
Rp1072
aa(lp1073
S'alsb_r-insb_a-inas'
p1074
ag3
(g7
S'\xef\xd6\xedVHv\xd7?'
p1075
tp1076
Rp1077
aa(lp1078
S'alsb_r-insb_a-inp'
p1079
ag3
(g7
S'&\xbf\x07-\x91\xa1\xd7?'
p1080
tp1081
Rp1082
aa(lp1083
S'alsb_r-insb_a-insb'
p1084
ag3
(g7
S'\xf6zH#r\x91\xd4?'
p1085
tp1086
Rp1087
aa(lp1088
S'c_r-cge_a-c'
p1089
ag3
(g7
S'\x0e}n\x17{r\n@'
p1090
tp1091
Rp1092
aa(lp1093
S'c_r-cge_a-cge'
p1094
ag3
(g7
S'\x8c\x01\xeaO\xfa{\x07@'
p1095
tp1096
Rp1097
aa(lp1098
S'c_r-cge_a-ge'
p1099
ag3
(g7
S'o_a\xa20\x8e\x07@'
p1100
tp1101
Rp1102
aa(lp1103
S'c_r-cge_a-gesn'
p1104
ag3
(g7
S'4m=\x8d\xbc\x16\x07@'
p1105
tp1106
Rp1107
aa(lp1108
S'c_r-cge_a-si'
p1109
ag3
(g7
S'\xfbq\x12\xcb\xa4\xa0\x07@'
p1110
tp1111
Rp1112
aa(lp1113
S'c_r-cge_a-sic'
p1114
ag3
(g7
S':l\xa0\x98E\xdd\x08@'
p1115
tp1116
Rp1117
aa(lp1118
S'c_r-cge_a-sige'
p1119
ag3
(g7
S'\xe4\xde\xe3\x97\xc9\xa1\x07@'
p1120
tp1121
Rp1122
aa(lp1123
S'c_r-cge_a-sn'
p1124
ag3
(g7
S'\x00\x00\x00\x00\x00\x00\x00\x00'
p1125
tp1126
Rp1127
aa(lp1128
S'c_r-cge_a-snsi'
p1129
ag3
(g7
S'\xfd\xae7\xbe/$\x07@'
p1130
tp1131
Rp1132
aa(lp1133
S'c_r-ge_a-c'
p1134
ag3
(g7
S';\x9b\x8f\xc8\xc7o\x12@'
p1135
tp1136
Rp1137
aa(lp1138
S'c_r-ge_a-cge'
p1139
ag3
(g7
S'O\xfa\xbaw\xb86\x15@'
p1140
tp1141
Rp1142
aa(lp1143
S'c_r-ge_a-ge'
p1144
ag3
(g7
S'\xe6\x05\x10\xfc:z\x15@'
p1145
tp1146
Rp1147
aa(lp1148
S'c_r-ge_a-gesn'
p1149
ag3
(g7
S'\xcb?q\x16\xea\xc5\x15@'
p1150
tp1151
Rp1152
aa(lp1153
S'c_r-ge_a-si'
p1154
ag3
(g7
S'\x9fj\x94\xe1\xf4\xf9\x14@'
p1155
tp1156
Rp1157
aa(lp1158
S'c_r-ge_a-sic'
p1159
ag3
(g7
S'\xe7A\xde\xac\xb5\xae\x12@'
p1160
tp1161
Rp1162
aa(lp1163
S'c_r-ge_a-sige'
p1164
ag3
(g7
S':\xd89\xf8\x7f\xfb\x14@'
p1165
tp1166
Rp1167
aa(lp1168
S'c_r-ge_a-sn'
p1169
ag3
(g7
S'\xb8U3\x97\x01\x00 @'
p1170
tp1171
Rp1172
aa(lp1173
S'c_r-ge_a-snsi'
p1174
ag3
(g7
S'p\xad\x0c\xc8p\x01 @'
p1175
tp1176
Rp1177
aa(lp1178
S'c_r-gesn_a-c'
p1179
ag3
(g7
S'\xb6\xdaQz\rs\x16@'
p1180
tp1181
Rp1182
aa(lp1183
S'c_r-gesn_a-cge'
p1184
ag3
(g7
S'[\xa9\xf0\xc81[\x18@'
p1185
tp1186
Rp1187
aa(lp1188
S'c_r-gesn_a-ge'
p1189
ag3
(g7
S'\xca\x1f\x1c\x04\x98\x00 @'
p1190
tp1191
Rp1192
aa(lp1193
S'c_r-gesn_a-gesn'
p1194
ag3
(g7
S'2\xb0\x9c\xee\xec\x01 @'
p1195
tp1196
Rp1197
aa(lp1198
S'c_r-gesn_a-si'
p1199
ag3
(g7
S'E\xf2\xe1,\xfa\x10\x18@'
p1200
tp1201
Rp1202
aa(lp1203
S'c_r-gesn_a-sic'
p1204
ag3
(g7
S'\x9f\x06j\ry\xc9\x15@'
p1205
tp1206
Rp1207
aa(lp1208
S'c_r-gesn_a-sige'
p1209
ag3
(g7
S'\xc0N2\xef2\x12\x18@'
p1210
tp1211
Rp1212
aa(lp1213
S'c_r-gesn_a-sn'
p1214
ag3
(g7
S'>P\xcf\x95\xfa\xff\x1f@'
p1215
tp1216
Rp1217
aa(lp1218
S'c_r-gesn_a-snsi'
p1219
ag3
(g7
S'9\x1e\xde\xf9C\xf4\x18@'
p1220
tp1221
Rp1222
aa(lp1223
S'c_r-si_a-c'
p1224
ag3
(g7
S'\x8d\x1b\xbb\xae\x83@\x11@'
p1225
tp1226
Rp1227
aa(lp1228
S'c_r-si_a-cge'
p1229
ag3
(g7
S'y\x12+qQ\xf0\x14@'
p1230
tp1231
Rp1232
aa(lp1233
S'c_r-si_a-ge'
p1234
ag3
(g7
S'\xfb\xc9\xfc\x89\x91E\x15@'
p1235
tp1236
Rp1237
aa(lp1238
S'c_r-si_a-gesn'
p1239
ag3
(g7
S'2\xb0\x9c\xee\xec\x01 @'
p1240
tp1241
Rp1242
aa(lp1243
S'c_r-si_a-si'
p1244
ag3
(g7
S'\x04\x8fI\x18\xb5\xb5\x14@'
p1245
tp1246
Rp1247
aa(lp1248
S'c_r-si_a-sic'
p1249
ag3
(g7
S'%8b\x90\xda\xcb\x11@'
p1250
tp1251
Rp1252
aa(lp1253
S'c_r-si_a-sige'
p1254
ag3
(g7
S'\xab\xf3\xe7\xa1\xcf\xa5\x14@'
p1255
tp1256
Rp1257
aa(lp1258
S'c_r-si_a-sn'
p1259
ag3
(g7
S'\x00\x00\x00\x00\x00\x00\x00\x00'
p1260
tp1261
Rp1262
aa(lp1263
S'c_r-si_a-snsi'
p1264
ag3
(g7
S'\xd3\xef4\xf1\xbe\x88\x15@'
p1265
tp1266
Rp1267
aa(lp1268
S'c_r-sic_a-c'
p1269
ag3
(g7
S'\xe4m\x83j\x06\x8d\t@'
p1270
tp1271
Rp1272
aa(lp1273
S'c_r-sic_a-cge'
p1274
ag3
(g7
S'e\x13\xee\x92K~\x07@'
p1275
tp1276
Rp1277
aa(lp1278
S'c_r-sic_a-ge'
p1279
ag3
(g7
S'V\xc4ug\xe1\x8f\x07@'
p1280
tp1281
Rp1282
aa(lp1283
S'c_r-sic_a-gesn'
p1284
ag3
(g7
S'2\xb0\x9c\xee\xec\x01 @'
p1285
tp1286
Rp1287
aa(lp1288
S'c_r-sic_a-si'
p1289
ag3
(g7
S'\xc1\xe8D\x87$\x96\x07@'
p1290
tp1291
Rp1292
aa(lp1293
S'c_r-sic_a-sic'
p1294
ag3
(g7
S'\x80\xf36\x1b\xcf\x83\x08@'
p1295
tp1296
Rp1297
aa(lp1298
S'c_r-sic_a-sige'
p1299
ag3
(g7
S'\xd4\xe9\xf8\x91\xc0\x97\x07@'
p1300
tp1301
Rp1302
aa(lp1303
S'c_r-sic_a-sn'
p1304
ag3
(g7
S'\x00\x00\x00\x00\x00\x00\x00\x00'
p1305
tp1306
Rp1307
aa(lp1308
S'c_r-sic_a-snsi'
p1309
ag3
(g7
S'p\xad\x0c\xc8p\x01 @'
p1310
tp1311
Rp1312
aa(lp1313
S'c_r-sige_a-c'
p1314
ag3
(g7
S'\x0cz\x80!l\xcb\x11@'
p1315
tp1316
Rp1317
aa(lp1318
S'c_r-sige_a-cge'
p1319
ag3
(g7
S'\xa5Z\xee\xd0\xc1\x12\x15@'
p1320
tp1321
Rp1322
aa(lp1323
S'c_r-sige_a-ge'
p1324
ag3
(g7
S'c\xb0\xd6\x83qc\x15@'
p1325
tp1326
Rp1327
aa(lp1328
S'c_r-sige_a-gesn'
p1329
ag3
(g7
S'\xea9\xfc\xd6)\xb2\x15@'
p1330
tp1331
Rp1332
aa(lp1333
S'c_r-sige_a-si'
p1334
ag3
(g7
S'\ra\xfa[\x91\xcf\x14@'
p1335
tp1336
Rp1337
aa(lp1338
S'c_r-sige_a-sic'
p1339
ag3
(g7
S'\xe1y\xa3\xb1\xf9A\x12@'
p1340
tp1341
Rp1342
aa(lp1343
S'c_r-sige_a-sige'
p1344
ag3
(g7
S'\x1d{\xec_\xe5\xd0\x14@'
p1345
tp1346
Rp1347
aa(lp1348
S'c_r-sige_a-sn'
p1349
ag3
(g7
S'\x00\x00\x00\x00\x00\x00\x00\x00'
p1350
tp1351
Rp1352
aa(lp1353
S'c_r-sige_a-snsi'
p1354
ag3
(g7
S'\xa9\xf0\xa7\xfc\xdc\x93\x15@'
p1355
tp1356
Rp1357
aa(lp1358
S'c_r-sn_a-c'
p1359
ag3
(g7
S'\xb3i\xf6\xaeo\xe2\x1a@'
p1360
tp1361
Rp1362
aa(lp1363
S'c_r-sn_a-cge'
p1364
ag3
(g7
S'\x06\x0fq\xdbf\x00 @'
p1365
tp1366
Rp1367
aa(lp1368
S'c_r-sn_a-ge'
p1369
ag3
(g7
S'\x8dM\xaf\xfb\xaa\xc0\x1b@'
p1370
tp1371
Rp1372
aa(lp1373
S'c_r-sn_a-gesn'
p1374
ag3
(g7
S'\n\x12.\xea\xedV\x1c@'
p1375
tp1376
Rp1377
aa(lp1378
S'c_r-sn_a-si'
p1379
ag3
(g7
S'N\x98#\xa5Y\x16\x1b@'
p1380
tp1381
Rp1382
aa(lp1383
S'c_r-sn_a-sic'
p1384
ag3
(g7
S'\xdc\xcd\xc6q\x0b\x00 @'
p1385
tp1386
Rp1387
aa(lp1388
S'c_r-sn_a-sige'
p1389
ag3
(g7
S'\xb5WaS\x92\x17\x1b@'
p1390
tp1391
Rp1392
aa(lp1393
S'c_r-sn_a-sn'
p1394
ag3
(g7
S'\x00\x00\x00\x00\x00\x00\x00\x00'
p1395
tp1396
Rp1397
aa(lp1398
S'c_r-sn_a-snsi'
p1399
ag3
(g7
S'p\xad\x0c\xc8p\x01 @'
p1400
tp1401
Rp1402
aa(lp1403
S'c_r-snsi_a-c'
p1404
ag3
(g7
S'\x0f\x1f\xdaZ\xf5\xff\x1f@'
p1405
tp1406
Rp1407
aa(lp1408
S'c_r-snsi_a-cge'
p1409
ag3
(g7
S'+\xea\xc5]p!\x18@'
p1410
tp1411
Rp1412
aa(lp1413
S'c_r-snsi_a-ge'
p1414
ag3
(g7
S'\xca\x1f\x1c\x04\x98\x00 @'
p1415
tp1416
Rp1417
aa(lp1418
S'c_r-snsi_a-gesn'
p1419
ag3
(g7
S'2\xb0\x9c\xee\xec\x01 @'
p1420
tp1421
Rp1422
aa(lp1423
S'c_r-snsi_a-si'
p1424
ag3
(g7
S'%\x9a\x87<%\x00 @'
p1425
tp1426
Rp1427
aa(lp1428
S'c_r-snsi_a-sic'
p1429
ag3
(g7
S'\xdc\xcd\xc6q\x0b\x00 @'
p1430
tp1431
Rp1432
aa(lp1433
S'c_r-snsi_a-sige'
p1434
ag3
(g7
S"V'\x90\x9f.\x00 @"
p1435
tp1436
Rp1437
aa(lp1438
S'c_r-snsi_a-sn'
p1439
ag3
(g7
S'\xf6yK\xe2\xfa\xff\x1f@'
p1440
tp1441
Rp1442
aa(lp1443
S'c_r-snsi_a-snsi'
p1444
ag3
(g7
S'p\xad\x0c\xc8p\x01 @'
p1445
tp1446
Rp1447
aa(lp1448
S'cds_r-cdse_a-cds'
p1449
ag3
(g7
S'\xdeY1\x92\xc0/\xf3?'
p1450
tp1451
Rp1452
aa(lp1453
S'cds_r-cdse_a-cdse'
p1454
ag3
(g7
S'\xe9T\xaa\xfb{U\xf3?'
p1455
tp1456
Rp1457
aa(lp1458
S'cds_r-cdse_a-cdte'
p1459
ag3
(g7
S'\xb5\xc2\xcc\x96+`\xf2?'
p1460
tp1461
Rp1462
aa(lp1463
S'cds_r-cdse_a-hgs'
p1464
ag3
(g7
S'\xe0\x7f@dte\xf3?'
p1465
tp1466
Rp1467
aa(lp1468
S'cds_r-cdse_a-hgse'
p1469
ag3
(g7
S'\xa7\xd7\xdf\x9e\x87C\xf3?'
p1470
tp1471
Rp1472
aa(lp1473
S'cds_r-cdse_a-hgte'
p1474
ag3
(g7
S'\xf9c+\xa6\xad\xa5\xf2?'
p1475
tp1476
Rp1477
aa(lp1478
S'cds_r-cdse_a-zns'
p1479
ag3
(g7
S'\xd0\x0c\xdd\xf9\xefw\xf3?'
p1480
tp1481
Rp1482
aa(lp1483
S'cds_r-cdse_a-znse'
p1484
ag3
(g7
S'j\x80\xc6\xfa,V\xf3?'
p1485
tp1486
Rp1487
aa(lp1488
S'cds_r-cdse_a-znte'
p1489
ag3
(g7
S"\xc3'\x0b\xd1\x1e\x00\xf3?"
p1490
tp1491
Rp1492
aa(lp1493
S'cds_r-cdte_a-cds'
p1494
ag3
(g7
S'\xf6\x1cY\n\x1a\xbe\n@'
p1495
tp1496
Rp1497
aa(lp1498
S'cds_r-cdte_a-cdse'
p1499
ag3
(g7
S'\x9a\xb8\xc4m\xd7\xda\n@'
p1500
tp1501
Rp1502
aa(lp1503
S'cds_r-cdte_a-cdte'
p1504
ag3
(g7
S'\xffm\x13V\x14\x12\n@'
p1505
tp1506
Rp1507
aa(lp1508
S'cds_r-cdte_a-hgs'
p1509
ag3
(g7
S'\x19\x02\xa6P\x10\xe3\n@'
p1510
tp1511
Rp1512
aa(lp1513
S'cds_r-cdte_a-hgse'
p1514
ag3
(g7
S'\xf4\xce>)p\xcf\n@'
p1515
tp1516
Rp1517
aa(lp1518
S'cds_r-cdte_a-hgte'
p1519
ag3
(g7
S'u\xf5\xccZD1\n@'
p1520
tp1521
Rp1522
aa(lp1523
S'cds_r-cdte_a-zns'
p1524
ag3
(g7
S'av\x95\x94$\x04\x0b@'
p1525
tp1526
Rp1527
aa(lp1528
S'cds_r-cdte_a-znse'
p1529
ag3
(g7
S'>i\xc2\x90\x9b\xf3\n@'
p1530
tp1531
Rp1532
aa(lp1533
S'cds_r-cdte_a-znte'
p1534
ag3
(g7
S',x\xc2\x88`\xa6\n@'
p1535
tp1536
Rp1537
aa(lp1538
S'cds_r-hgs_a-cds'
p1539
ag3
(g7
S'c\xe5\xa2i}}\n@'
p1540
tp1541
Rp1542
aa(lp1543
S'cds_r-hgs_a-cdse'
p1544
ag3
(g7
S'\x1e\xeahB\x8e\x11\x0b@'
p1545
tp1546
Rp1547
aa(lp1548
S'cds_r-hgs_a-cdte'
p1549
ag3
(g7
S'Q%\x15\x1f8\xb6\n@'
p1550
tp1551
Rp1552
aa(lp1553
S'cds_r-hgs_a-hgs'
p1554
ag3
(g7
S'r\x1av\xa1\xd9\x93\n@'
p1555
tp1556
Rp1557
aa(lp1558
S'cds_r-hgs_a-hgse'
p1559
ag3
(g7
S'\xd2[n\x1f0\x12\x0b@'
p1560
tp1561
Rp1562
aa(lp1563
S'cds_r-hgs_a-hgte'
p1564
ag3
(g7
S'\x8b\xfe\x8e\x07G\xbf\n@'
p1565
tp1566
Rp1567
aa(lp1568
S'cds_r-hgs_a-zns'
p1569
ag3
(g7
S'\x88\xe2\xbb\xd7\xe5\x08\n@'
p1570
tp1571
Rp1572
aa(lp1573
S'cds_r-hgs_a-znse'
p1574
ag3
(g7
S'\x85.\xd0y^b\n@'
p1575
tp1576
Rp1577
aa(lp1578
S'cds_r-hgs_a-znte'
p1579
ag3
(g7
S'd\x9dU\x11\x0f\xe1\n@'
p1580
tp1581
Rp1582
aa(lp1583
S'cds_r-hgse_a-cds'
p1584
ag3
(g7
S'r\x16\xbfe\xee\x91\x11@'
p1585
tp1586
Rp1587
aa(lp1588
S'cds_r-hgse_a-cdse'
p1589
ag3
(g7
S'\xb4\x90_v\x8d\xa5\x11@'
p1590
tp1591
Rp1592
aa(lp1593
S'cds_r-hgse_a-cdte'
p1594
ag3
(g7
S'Ty\xb2\x06\xacj\x11@'
p1595
tp1596
Rp1597
aa(lp1598
S'cds_r-hgse_a-hgs'
p1599
ag3
(g7
S'\x8al\x07\xab`\x9e\x11@'
p1600
tp1601
Rp1602
aa(lp1603
S'cds_r-hgse_a-hgse'
p1604
ag3
(g7
S'q.}\xb6Z\xa0\x11@'
p1605
tp1606
Rp1607
aa(lp1608
S'cds_r-hgse_a-hgte'
p1609
ag3
(g7
S'\xa6k\xbc\x155\x99\x11@'
p1610
tp1611
Rp1612
aa(lp1613
S'cds_r-hgse_a-zns'
p1614
ag3
(g7
S'\x86\xdbH\xa0\x1d\x91\x11@'
p1615
tp1616
Rp1617
aa(lp1618
S'cds_r-hgse_a-znse'
p1619
ag3
(g7
S'J\xb1\xf0\xc8\xfb\xa8\x11@'
p1620
tp1621
Rp1622
aa(lp1623
S'cds_r-hgse_a-znte'
p1624
ag3
(g7
S'\xe7\x9d\xb5\x15\xdf\xa1\x11@'
p1625
tp1626
Rp1627
aa(lp1628
S'cds_r-hgte_a-cds'
p1629
ag3
(g7
S'!\xe6\xd7\xed20\x1a@'
p1630
tp1631
Rp1632
aa(lp1633
S'cds_r-hgte_a-cdse'
p1634
ag3
(g7
S'\xb8\x99\x1c\x90[2\x1a@'
p1635
tp1636
Rp1637
aa(lp1638
S'cds_r-hgte_a-cdte'
p1639
ag3
(g7
S'\x1fmbL\x9c\xe4\x19@'
p1640
tp1641
Rp1642
aa(lp1643
S'cds_r-hgte_a-hgs'
p1644
ag3
(g7
S'\xf4Fb\xf58/\x1a@'
p1645
tp1646
Rp1647
aa(lp1648
S'cds_r-hgte_a-hgse'
p1649
ag3
(g7
S'\x8e>\xd1\xcc\x151\x1a@'
p1650
tp1651
Rp1652
aa(lp1653
S'cds_r-hgte_a-hgte'
p1654
ag3
(g7
S'\xce\xdc\x07\xe4\x9b\xf9\x19@'
p1655
tp1656
Rp1657
aa(lp1658
S'cds_r-hgte_a-zns'
p1659
ag3
(g7
S'\xa6\x9f\x03\x14\x8f+\x1a@'
p1660
tp1661
Rp1662
aa(lp1663
S'cds_r-hgte_a-znse'
p1664
ag3
(g7
S'\xcb\xc9\x182\xbeA\x1a@'
p1665
tp1666
Rp1667
aa(lp1668
S'cds_r-hgte_a-znte'
p1669
ag3
(g7
S'\xe2J\xff\x9e\xb3\x1d\x1a@'
p1670
tp1671
Rp1672
aa(lp1673
S'cds_r-zns_a-cds'
p1674
ag3
(g7
S'f\xa9\xdf\x86E\xf6\x1a@'
p1675
tp1676
Rp1677
aa(lp1678
S'cds_r-zns_a-cdse'
p1679
ag3
(g7
S'\x15\xb6>\x8e\x08\xc4\x1a@'
p1680
tp1681
Rp1682
aa(lp1683
S'cds_r-zns_a-cdte'
p1684
ag3
(g7
S'B\xea\xb9m&\xd1\x1a@'
p1685
tp1686
Rp1687
aa(lp1688
S'cds_r-zns_a-hgs'
p1689
ag3
(g7
S'\x8ef}<L\xdc\x1a@'
p1690
tp1691
Rp1692
aa(lp1693
S'cds_r-zns_a-hgse'
p1694
ag3
(g7
S'\x13\xfd\x82\x01\xc6\xbb\x1a@'
p1695
tp1696
Rp1697
aa(lp1698
S'cds_r-zns_a-hgte'
p1699
ag3
(g7
S'\xc2\x8a#j\xfe\xce\x1a@'
p1700
tp1701
Rp1702
aa(lp1703
S'cds_r-zns_a-zns'
p1704
ag3
(g7
S'\xf6\xfcR\x1f\x04\xbc\x1a@'
p1705
tp1706
Rp1707
aa(lp1708
S'cds_r-zns_a-znse'
p1709
ag3
(g7
S'kk\xaf\xe7\x1a\xc4\x1a@'
p1710
tp1711
Rp1712
aa(lp1713
S'cds_r-zns_a-znte'
p1714
ag3
(g7
S'(\x15\xeafa\xe3\x1a@'
p1715
tp1716
Rp1717
aa(lp1718
S'cds_r-znse_a-cds'
p1719
ag3
(g7
S'\xc8\xf3\xf3\x0f\xe2\xc3\x1b@'
p1720
tp1721
Rp1722
aa(lp1723
S'cds_r-znse_a-cdse'
p1724
ag3
(g7
S'jU\xc4%\xa5\xf6\x1b@'
p1725
tp1726
Rp1727
aa(lp1728
S'cds_r-znse_a-cdte'
p1729
ag3
(g7
S'e\x15.2<[\x1c@'
p1730
tp1731
Rp1732
aa(lp1733
S'cds_r-znse_a-hgs'
p1734
ag3
(g7
S'\x0e\xef\xc0\xea\xae\xca\x1b@'
p1735
tp1736
Rp1737
aa(lp1738
S'cds_r-znse_a-hgse'
p1739
ag3
(g7
S'L\x8aK*)\xed\x1b@'
p1740
tp1741
Rp1742
aa(lp1743
S'cds_r-znse_a-hgte'
p1744
ag3
(g7
S'\xb7u\xf6-gO\x1c@'
p1745
tp1746
Rp1747
aa(lp1748
S'cds_r-znse_a-zns'
p1749
ag3
(g7
S'2\x91V5\xad=\x1b@'
p1750
tp1751
Rp1752
aa(lp1753
S'cds_r-znse_a-znse'
p1754
ag3
(g7
S'\xd7\xf3\xbf[D\x92\x1b@'
p1755
tp1756
Rp1757
aa(lp1758
S'cds_r-znse_a-znte'
p1759
ag3
(g7
S'\xa6\xab\xc5x \x0b\x1c@'
p1760
tp1761
Rp1762
aa(lp1763
S'cds_r-znte_a-cds'
p1764
ag3
(g7
S'N<t";\xd4 @'
p1765
tp1766
Rp1767
aa(lp1768
S'cds_r-znte_a-cdse'
p1769
ag3
(g7
S'n\xa5\xc8\xcaW\x10!@'
p1770
tp1771
Rp1772
aa(lp1773
S'cds_r-znte_a-cdte'
p1774
ag3
(g7
S'\xa4,x\x9b*[!@'
p1775
tp1776
Rp1777
aa(lp1778
S'cds_r-znte_a-hgs'
p1779
ag3
(g7
S'v\xb4f\xa3+\xd7 @'
p1780
tp1781
Rp1782
aa(lp1783
S'cds_r-znte_a-hgse'
p1784
ag3
(g7
S'zwc`@\x12!@'
p1785
tp1786
Rp1787
aa(lp1788
S'cds_r-znte_a-hgte'
p1789
ag3
(g7
S'\xf1\xe1\xea\x14\xa0`!@'
p1790
tp1791
Rp1792
aa(lp1793
S'cds_r-znte_a-zns'
p1794
ag3
(g7
S'\xb0\x17\xbb,|U @'
p1795
tp1796
Rp1797
aa(lp1798
S'cds_r-znte_a-znse'
p1799
ag3
(g7
S'\x97\xd1\x1d\nT\xa9 @'
p1800
tp1801
Rp1802
aa(lp1803
S'cds_r-znte_a-znte'
p1804
ag3
(g7
S'\xc0\n\xa5"z\x10!@'
p1805
tp1806
Rp1807
aa(lp1808
S'cdse_r-cds_a-cds'
p1809
ag3
(g7
S'\xdeY1\x92\xc0/\xf3?'
p1810
tp1811
Rp1812
aa(lp1813
S'cdse_r-cds_a-cdse'
p1814
ag3
(g7
S'\xe9T\xaa\xfb{U\xf3?'
p1815
tp1816
Rp1817
aa(lp1818
S'cdse_r-cds_a-cdte'
p1819
ag3
(g7
S'\xb5\xc2\xcc\x96+`\xf2?'
p1820
tp1821
Rp1822
aa(lp1823
S'cdse_r-cds_a-hgs'
p1824
ag3
(g7
S'\xe0\x7f@dte\xf3?'
p1825
tp1826
Rp1827
aa(lp1828
S'cdse_r-cds_a-hgse'
p1829
ag3
(g7
S'\xa7\xd7\xdf\x9e\x87C\xf3?'
p1830
tp1831
Rp1832
aa(lp1833
S'cdse_r-cds_a-hgte'
p1834
ag3
(g7
S'\xf9c+\xa6\xad\xa5\xf2?'
p1835
tp1836
Rp1837
aa(lp1838
S'cdse_r-cds_a-zns'
p1839
ag3
(g7
S'\xd0\x0c\xdd\xf9\xefw\xf3?'
p1840
tp1841
Rp1842
aa(lp1843
S'cdse_r-cds_a-znse'
p1844
ag3
(g7
S'j\x80\xc6\xfa,V\xf3?'
p1845
tp1846
Rp1847
aa(lp1848
S'cdse_r-cds_a-znte'
p1849
ag3
(g7
S"\xc3'\x0b\xd1\x1e\x00\xf3?"
p1850
tp1851
Rp1852
aa(lp1853
S'cdse_r-cdte_a-cds'
p1854
ag3
(g7
S'\x8bz\xa1\x02sl\x01@'
p1855
tp1856
Rp1857
aa(lp1858
S'cdse_r-cdte_a-cdse'
p1859
ag3
(g7
S'\x98\xa8VH\x97r\x01@'
p1860
tp1861
Rp1862
aa(lp1863
S'cdse_r-cdte_a-cdte'
p1864
ag3
(g7
S'\x9d\xd6\xc5$\xbb0\x01@'
p1865
tp1866
Rp1867
aa(lp1868
S'cdse_r-cdte_a-hgs'
p1869
ag3
(g7
S';S\x9f\xeb\xd2t\x01@'
p1870
tp1871
Rp1872
aa(lp1873
S'cdse_r-cdte_a-hgse'
p1874
ag3
(g7
S'{\x90\xd2\x18\x90o\x01@'
p1875
tp1876
Rp1877
aa(lp1878
S'cdse_r-cdte_a-hgte'
p1879
ag3
(g7
S'9\x81\xd7\x97\x0e-\x01@'
p1880
tp1881
Rp1882
aa(lp1883
S'cdse_r-cdte_a-zns'
p1884
ag3
(g7
S'\x0f\x8cJ\xe8\x87\x87\x01@'
p1885
tp1886
Rp1887
aa(lp1888
S'cdse_r-cdte_a-znse'
p1889
ag3
(g7
S'\xf6\x1e\x94\x84\x04\x8f\x01@'
p1890
tp1891
Rp1892
aa(lp1893
S'cdse_r-cdte_a-znte'
p1894
ag3
(g7
S'\xf0_~oUn\x01@'
p1895
tp1896
Rp1897
aa(lp1898
S'cdse_r-hgs_a-cds'
p1899
ag3
(g7
S'\xcb\xb3\xc4\x99\x9f\x82\x0e@'
p1900
tp1901
Rp1902
aa(lp1903
S'cdse_r-hgs_a-cdse'
p1904
ag3
(g7
S"'\xb8\xc92\x7fv\x0f@"
p1905
tp1906
Rp1907
aa(lp1908
S'cdse_r-hgs_a-cdte'
p1909
ag3
(g7
S'T\xf6tG\xe0g\x10@'
p1910
tp1911
Rp1912
aa(lp1913
S'cdse_r-hgs_a-hgs'
p1914
ag3
(g7
S'\x83\x16<g\x97\x9d\x0e@'
p1915
tp1916
Rp1917
aa(lp1918
S'cdse_r-hgs_a-hgse'
p1919
ag3
(g7
S'd |\xecIz\x0f@'
p1920
tp1921
Rp1922
aa(lp1923
S'cdse_r-hgs_a-hgte'
p1924
ag3
(g7
S'\nU\xff\xa8\x10T\x10@'
p1925
tp1926
Rp1927
aa(lp1928
S'cdse_r-hgs_a-zns'
p1929
ag3
(g7
S'\x08d\xe0s\xb2:\r@'
p1930
tp1931
Rp1932
aa(lp1933
S'cdse_r-hgs_a-znse'
p1934
ag3
(g7
S'D\xa8.k\x1f\x06\x0e@'
p1935
tp1936
Rp1937
aa(lp1938
S'cdse_r-hgs_a-znte'
p1939
ag3
(g7
S'8\x9d\x90\xfc\xb5\x92\x0f@'
p1940
tp1941
Rp1942
aa(lp1943
S'cdse_r-hgse_a-cds'
p1944
ag3
(g7
S'!H\xe6\xc7\xe6A\n@'
p1945
tp1946
Rp1947
aa(lp1948
S'cdse_r-hgse_a-cdse'
p1949
ag3
(g7
S'\xe9$(?\xd6\x94\n@'
p1950
tp1951
Rp1952
aa(lp1953
S'cdse_r-hgse_a-cdte'
p1954
ag3
(g7
S'V\xcbkuu\x0c\x0b@'
p1955
tp1956
Rp1957
aa(lp1958
S'cdse_r-hgse_a-hgs'
p1959
ag3
(g7
S'\x04Y\x1b\xac%H\n@'
p1960
tp1961
Rp1962
aa(lp1963
S'cdse_r-hgse_a-hgse'
p1964
ag3
(g7
S'I#\xe8\x13\xbb\x95\n@'
p1965
tp1966
Rp1967
aa(lp1968
S'cdse_r-hgse_a-hgte'
p1969
ag3
(g7
S'\x10\x00\x9c\xe82|\x0b@'
p1970
tp1971
Rp1972
aa(lp1973
S'cdse_r-hgse_a-zns'
p1974
ag3
(g7
S'-\xd3M\x9bA\xce\t@'
p1975
tp1976
Rp1977
aa(lp1978
S'cdse_r-hgse_a-znse'
p1979
ag3
(g7
S'\xda\xf4\xf4\x08\xf5Q\n@'
p1980
tp1981
Rp1982
aa(lp1983
S'cdse_r-hgse_a-znte'
p1984
ag3
(g7
S'\x1c\xf6\xca\xfd\xc0\xe7\n@'
p1985
tp1986
Rp1987
aa(lp1988
S'cdse_r-hgte_a-cds'
p1989
ag3
(g7
S'\x90+\x04\x9d\xc9\x8e\x15@'
p1990
tp1991
Rp1992
aa(lp1993
S'cdse_r-hgte_a-cdse'
p1994
ag3
(g7
S'S\xcc2}\x9c\x87\x15@'
p1995
tp1996
Rp1997
aa(lp1998
S'cdse_r-hgte_a-cdte'
p1999
ag3
(g7
S'\x8b\xc1\xe8\xc0\xa3\x7f\x15@'
p2000
tp2001
Rp2002
aa(lp2003
S'cdse_r-hgte_a-hgs'
p2004
ag3
(g7
S'E\xc3\x18\xb1\x8c\x7f\x15@'
p2005
tp2006
Rp2007
aa(lp2008
S'cdse_r-hgte_a-hgse'
p2009
ag3
(g7
S'\xca\xcd\xaf?9\x8a\x15@'
p2010
tp2011
Rp2012
aa(lp2013
S'cdse_r-hgte_a-hgte'
p2014
ag3
(g7
S'F\x85\xa3\xdbB\x84\x15@'
p2015
tp2016
Rp2017
aa(lp2018
S'cdse_r-hgte_a-zns'
p2019
ag3
(g7
S'L\xf9\xff\xbaNm\x15@'
p2020
tp2021
Rp2022
aa(lp2023
S'cdse_r-hgte_a-znse'
p2024
ag3
(g7
S'U\xec\x9d\xbae\x96\x15@'
p2025
tp2026
Rp2027
aa(lp2028
S'cdse_r-hgte_a-znte'
p2029
ag3
(g7
S'\x89\xf2K\xfb\x8a\x8a\x15@'
p2030
tp2031
Rp2032
aa(lp2033
S'cdse_r-zns_a-cds'
p2034
ag3
(g7
S'\xdc\xbf\x98\xd0\xd62\x1f@'
p2035
tp2036
Rp2037
aa(lp2038
S'cdse_r-zns_a-cdse'
p2039
ag3
(g7
S'\x9cADg!$\x1f@'
p2040
tp2041
Rp2042
aa(lp2043
S'cdse_r-zns_a-cdte'
p2044
ag3
(g7
S'\xab$\x9b\x1b\xae;\x1f@'
p2045
tp2046
Rp2047
aa(lp2048
S'cdse_r-zns_a-hgs'
p2049
ag3
(g7
S'g\xcc\x7fqt0\x1f@'
p2050
tp2051
Rp2052
aa(lp2053
S'cdse_r-zns_a-hgse'
p2054
ag3
(g7
S'\x08\x13YhT\x1c\x1f@'
p2055
tp2056
Rp2057
aa(lp2058
S'cdse_r-zns_a-hgte'
p2059
ag3
(g7
S'\x1f:*\x1c\xb46\x1f@'
p2060
tp2061
Rp2062
aa(lp2063
S'cdse_r-zns_a-zns'
p2064
ag3
(g7
S'%\xc2[\xc6\xd3\xe1\x1e@'
p2065
tp2066
Rp2067
aa(lp2068
S'cdse_r-zns_a-znse'
p2069
ag3
(g7
S'6\xceAS\xb0\xfe\x1e@'
p2070
tp2071
Rp2072
aa(lp2073
S'cdse_r-zns_a-znte'
p2074
ag3
(g7
S'\xf4\xc9\xcds\xe8@\x1f@'
p2075
tp2076
Rp2077
aa(lp2078
S'cdse_r-znse_a-cds'
p2079
ag3
(g7
S'\x1cM:\xe3^\xcd\x1a@'
p2080
tp2081
Rp2082
aa(lp2083
S'cdse_r-znse_a-cdse'
p2084
ag3
(g7
S'\x0e&`I\xd5\xc6\x1a@'
p2085
tp2086
Rp2087
aa(lp2088
S'cdse_r-znse_a-cdte'
p2089
ag3
(g7
S'}\xb9\x9c\x84v\xcb\x1a@'
p2090
tp2091
Rp2092
aa(lp2093
S'cdse_r-znse_a-hgs'
p2094
ag3
(g7
S'y\x1d\x86z\x8e\xc9\x1a@'
p2095
tp2096
Rp2097
aa(lp2098
S'cdse_r-znse_a-hgse'
p2099
ag3
(g7
S'\x8d\x7fg`~\xb4\x1a@'
p2100
tp2101
Rp2102
aa(lp2103
S'cdse_r-znse_a-hgte'
p2104
ag3
(g7
S'M\xf7H\xfd\x83\xc9\x1a@'
p2105
tp2106
Rp2107
aa(lp2108
S'cdse_r-znse_a-zns'
p2109
ag3
(g7
S'tR\xf3\xc1\xcf\xab\x1a@'
p2110
tp2111
Rp2112
aa(lp2113
S'cdse_r-znse_a-znse'
p2114
ag3
(g7
S'\x8b\xe0 \xeb\xbb\xbd\x1a@'
p2115
tp2116
Rp2117
aa(lp2118
S'cdse_r-znse_a-znte'
p2119
ag3
(g7
S'l\xd3\xb8hO\xc4\x1a@'
p2120
tp2121
Rp2122
aa(lp2123
S'cdse_r-znte_a-cds'
p2124
ag3
(g7
S'\xdfK\x9f\xd9}\xf9\x1d@'
p2125
tp2126
Rp2127
aa(lp2128
S'cdse_r-znte_a-cdse'
p2129
ag3
(g7
S'd\x92\xc7B\xbf`\x1e@'
p2130
tp2131
Rp2132
aa(lp2133
S'cdse_r-znte_a-cdte'
p2134
ag3
(g7
S'\x0fk0R\x9b\xe0\x1e@'
p2135
tp2136
Rp2137
aa(lp2138
S'cdse_r-znte_a-hgs'
p2139
ag3
(g7
S'\x80\xa5h\xa9\x9b\xf7\x1d@'
p2140
tp2141
Rp2142
aa(lp2143
S'cdse_r-znte_a-hgse'
p2144
ag3
(g7
S'P!Ks\xecc\x1e@'
p2145
tp2146
Rp2147
aa(lp2148
S'cdse_r-znte_a-hgte'
p2149
ag3
(g7
S'Wcq\xf5^\xef\x1e@'
p2150
tp2151
Rp2152
aa(lp2153
S'cdse_r-znte_a-zns'
p2154
ag3
(g7
S'\x9f3@\x12L%\x1d@'
p2155
tp2156
Rp2157
aa(lp2158
S'cdse_r-znte_a-znse'
p2159
ag3
(g7
S"\x14\xb0\x80D'\xb2\x1d@"
p2160
tp2161
Rp2162
aa(lp2163
S'cdse_r-znte_a-znte'
p2164
ag3
(g7
S'1\xbc\xe2\xde\xa9W\x1e@'
p2165
tp2166
Rp2167
aa(lp2168
S'cdte_r-cds_a-cds'
p2169
ag3
(g7
S'\xf6\x1cY\n\x1a\xbe\n@'
p2170
tp2171
Rp2172
aa(lp2173
S'cdte_r-cds_a-cdse'
p2174
ag3
(g7
S'\x9a\xb8\xc4m\xd7\xda\n@'
p2175
tp2176
Rp2177
aa(lp2178
S'cdte_r-cds_a-cdte'
p2179
ag3
(g7
S'\xffm\x13V\x14\x12\n@'
p2180
tp2181
Rp2182
aa(lp2183
S'cdte_r-cds_a-hgs'
p2184
ag3
(g7
S'\x19\x02\xa6P\x10\xe3\n@'
p2185
tp2186
Rp2187
aa(lp2188
S'cdte_r-cds_a-hgse'
p2189
ag3
(g7
S'\xf4\xce>)p\xcf\n@'
p2190
tp2191
Rp2192
aa(lp2193
S'cdte_r-cds_a-hgte'
p2194
ag3
(g7
S'u\xf5\xccZD1\n@'
p2195
tp2196
Rp2197
aa(lp2198
S'cdte_r-cds_a-zns'
p2199
ag3
(g7
S'av\x95\x94$\x04\x0b@'
p2200
tp2201
Rp2202
aa(lp2203
S'cdte_r-cds_a-znse'
p2204
ag3
(g7
S'>i\xc2\x90\x9b\xf3\n@'
p2205
tp2206
Rp2207
aa(lp2208
S'cdte_r-cds_a-znte'
p2209
ag3
(g7
S',x\xc2\x88`\xa6\n@'
p2210
tp2211
Rp2212
aa(lp2213
S'cdte_r-cdse_a-cds'
p2214
ag3
(g7
S'\x8bz\xa1\x02sl\x01@'
p2215
tp2216
Rp2217
aa(lp2218
S'cdte_r-cdse_a-cdse'
p2219
ag3
(g7
S'\x98\xa8VH\x97r\x01@'
p2220
tp2221
Rp2222
aa(lp2223
S'cdte_r-cdse_a-cdte'
p2224
ag3
(g7
S'\x9d\xd6\xc5$\xbb0\x01@'
p2225
tp2226
Rp2227
aa(lp2228
S'cdte_r-cdse_a-hgs'
p2229
ag3
(g7
S';S\x9f\xeb\xd2t\x01@'
p2230
tp2231
Rp2232
aa(lp2233
S'cdte_r-cdse_a-hgse'
p2234
ag3
(g7
S'{\x90\xd2\x18\x90o\x01@'
p2235
tp2236
Rp2237
aa(lp2238
S'cdte_r-cdse_a-hgte'
p2239
ag3
(g7
S'9\x81\xd7\x97\x0e-\x01@'
p2240
tp2241
Rp2242
aa(lp2243
S'cdte_r-cdse_a-zns'
p2244
ag3
(g7
S'\x0f\x8cJ\xe8\x87\x87\x01@'
p2245
tp2246
Rp2247
aa(lp2248
S'cdte_r-cdse_a-znse'
p2249
ag3
(g7
S'\xf6\x1e\x94\x84\x04\x8f\x01@'
p2250
tp2251
Rp2252
aa(lp2253
S'cdte_r-cdse_a-znte'
p2254
ag3
(g7
S'\xf0_~oUn\x01@'
p2255
tp2256
Rp2257
aa(lp2258
S'cdte_r-hgs_a-cds'
p2259
ag3
(g7
S'\x96b\xea\x98,\xe6\x14@'
p2260
tp2261
Rp2262
aa(lp2263
S'cdte_r-hgs_a-cdse'
p2264
ag3
(g7
S'\xb3\xc6*\xb6\xcb~\x15@'
p2265
tp2266
Rp2267
aa(lp2268
S'cdte_r-hgs_a-cdte'
p2269
ag3
(g7
S'\xc3\x15\xd7+\xe2\x96\x16@'
p2270
tp2271
Rp2272
aa(lp2273
S'cdte_r-hgs_a-hgs'
p2274
ag3
(g7
S'\xfbH\x81\x00\xf6\xf0\x14@'
p2275
tp2276
Rp2277
aa(lp2278
S'cdte_r-hgs_a-hgse'
p2279
ag3
(g7
S'\xfd\x15\xb6Q<\x7f\x15@'
p2280
tp2281
Rp2282
aa(lp2283
S'cdte_r-hgs_a-hgte'
p2284
ag3
(g7
S'\xe3\xa4a\xe9\xc5\x87\x16@'
p2285
tp2286
Rp2287
aa(lp2288
S'cdte_r-hgs_a-zns'
p2289
ag3
(g7
S'J\x11\x1cQ\x01\xe5\x13@'
p2290
tp2291
Rp2292
aa(lp2293
S'cdte_r-hgs_a-znse'
p2294
ag3
(g7
S'\xe2|\x1a\xc76\x81\x14@'
p2295
tp2296
Rp2297
aa(lp2298
S'cdte_r-hgs_a-znte'
p2299
ag3
(g7
S'\xb3\xea\x9b\x0b\xc6\x8c\x15@'
p2300
tp2301
Rp2302
aa(lp2303
S'cdte_r-hgse_a-cds'
p2304
ag3
(g7
S'\xe4#\xb0\x9bhi\x11@'
p2305
tp2306
Rp2307
aa(lp2308
S'cdte_r-hgse_a-cdse'
p2309
ag3
(g7
S'\x15HK\xbb\xf2\xe4\x11@'
p2310
tp2311
Rp2312
aa(lp2313
S'cdte_r-hgse_a-cdte'
p2314
ag3
(g7
S'\x18mD\xcd\xaa\xbe\x12@'
p2315
tp2316
Rp2317
aa(lp2318
S'cdte_r-hgse_a-hgs'
p2319
ag3
(g7
S'\xecK\x1a]&n\x11@'
p2320
tp2321
Rp2322
aa(lp2323
S'cdte_r-hgse_a-hgse'
p2324
ag3
(g7
S'\x93\x81\x17\x87\xd1\xe6\x11@'
p2325
tp2326
Rp2327
aa(lp2328
S'cdte_r-hgse_a-hgte'
p2329
ag3
(g7
S'\xf2N\xcb\xc6\x7f\xc4\x12@'
p2330
tp2331
Rp2332
aa(lp2333
S'cdte_r-hgse_a-zns'
p2334
ag3
(g7
S'\x07\xe4\xf1\x1cw\x9e\x10@'
p2335
tp2336
Rp2337
aa(lp2338
S'cdte_r-hgse_a-znse'
p2339
ag3
(g7
S'\x11j\xaax\x7f\x11\x11@'
p2340
tp2341
Rp2342
aa(lp2343
S'cdte_r-hgse_a-znte'
p2344
ag3
(g7
S'e\xbe\xdd\x94\xae\xf9\x11@'
p2345
tp2346
Rp2347
aa(lp2348
S'cdte_r-hgte_a-cds'
p2349
ag3
(g7
S'\xb5P\x8a?\x0e?\n@'
p2350
tp2351
Rp2352
aa(lp2353
S'cdte_r-hgte_a-cdse'
p2354
ag3
(g7
S'`\xde\xbc9\xa9d\n@'
p2355
tp2356
Rp2357
aa(lp2358
S'cdte_r-hgte_a-cdte'
p2359
ag3
(g7
S'\x84\x85\xce@\xd8\xeb\n@'
p2360
tp2361
Rp2362
aa(lp2363
S'cdte_r-hgte_a-hgs'
p2364
ag3
(g7
S'\xd7\xf6\xfc\xe6H%\n@'
p2365
tp2366
Rp2367
aa(lp2368
S'cdte_r-hgte_a-hgse'
p2369
ag3
(g7
S'\xd2G\x83hTm\n@'
p2370
tp2371
Rp2372
aa(lp2373
S'cdte_r-hgte_a-hgte'
p2374
ag3
(g7
S'\xff\x00Q\xce\xf1\xee\n@'
p2375
tp2376
Rp2377
aa(lp2378
S'cdte_r-hgte_a-zns'
p2379
ag3
(g7
S'\x00\xad*\xd0\x11\xd1\t@'
p2380
tp2381
Rp2382
aa(lp2383
S'cdte_r-hgte_a-znse'
p2384
ag3
(g7
S"\xa4\xe5\xd6,\x04'\n@"
p2385
tp2386
Rp2387
aa(lp2388
S'cdte_r-hgte_a-znte'
p2389
ag3
(g7
S'RT\x82\xcf\x05r\n@'
p2390
tp2391
Rp2392
aa(lp2393
S'cdte_r-zns_a-cds'
p2394
ag3
(g7
S'\xa2\x94\xedf\xff\xc1#@'
p2395
tp2396
Rp2397
aa(lp2398
S'cdte_r-zns_a-cdse'
p2399
ag3
(g7
S'\xf6BTB?\xbb#@'
p2400
tp2401
Rp2402
aa(lp2403
S'cdte_r-zns_a-cdte'
p2404
ag3
(g7
S'\x15\xfb],\xaf\xbe#@'
p2405
tp2406
Rp2407
aa(lp2408
S'cdte_r-zns_a-hgs'
p2409
ag3
(g7
S'\xb0o\x05Z\x06\xc2#@'
p2410
tp2411
Rp2412
aa(lp2413
S'cdte_r-zns_a-hgse'
p2414
ag3
(g7
S'\xfd\xa4\xdd\xddL\xb7#@'
p2415
tp2416
Rp2417
aa(lp2418
S'cdte_r-zns_a-hgte'
p2419
ag3
(g7
S'\x12\x086\xf9\xb7\xbc#@'
p2420
tp2421
Rp2422
aa(lp2423
S'cdte_r-zns_a-zns'
p2424
ag3
(g7
S'\xe6\xa6 \xe7\xe2\x96#@'
p2425
tp2426
Rp2427
aa(lp2428
S'cdte_r-zns_a-znse'
p2429
ag3
(g7
S'{A\xbb\xbb\xf5\xaa#@'
p2430
tp2431
Rp2432
aa(lp2433
S'cdte_r-zns_a-znte'
p2434
ag3
(g7
S'\xce\x858LJ\xc9#@'
p2435
tp2436
Rp2437
aa(lp2438
S'cdte_r-znse_a-cds'
p2439
ag3
(g7
S'\xe6m\x0b=*[!@'
p2440
tp2441
Rp2442
aa(lp2443
S'cdte_r-znse_a-cdse'
p2444
ag3
(g7
S'L\xed\xe8b\x96i!@'
p2445
tp2446
Rp2447
aa(lp2448
S'cdte_r-znse_a-cdte'
p2449
ag3
(g7
S'\xf3\xb8\xc1\xbf\x98m!@'
p2450
tp2451
Rp2452
aa(lp2453
S'cdte_r-znse_a-hgs'
p2454
ag3
(g7
S'j\x7f\xb2\xaf\x98Y!@'
p2455
tp2456
Rp2457
aa(lp2458
S'cdte_r-znse_a-hgse'
p2459
ag3
(g7
S'r\xd7\x1d\xa8\x99`!@'
p2460
tp2461
Rp2462
aa(lp2463
S'cdte_r-znse_a-hgte'
p2464
ag3
(g7
S'\xd6\x8e\xdb\x0e9j!@'
p2465
tp2466
Rp2467
aa(lp2468
S'cdte_r-znse_a-zns'
p2469
ag3
(g7
S'\x17\xa9\xc5\xf1\xd85!@'
p2470
tp2471
Rp2472
aa(lp2473
S'cdte_r-znse_a-znse'
p2474
ag3
(g7
S'\xd4\xea#\x1cCI!@'
p2475
tp2476
Rp2477
aa(lp2478
S'cdte_r-znse_a-znte'
p2479
ag3
(g7
S'\xca\x93\xb7Q\x9ag!@'
p2480
tp2481
Rp2482
aa(lp2483
S'cdte_r-znte_a-cds'
p2484
ag3
(g7
S'{\xc5\x02[\x12\xb2\x1a@'
p2485
tp2486
Rp2487
aa(lp2488
S'cdte_r-znte_a-cdse'
p2489
ag3
(g7
S'\x07{r\xe6\x89\xcb\x1a@'
p2490
tp2491
Rp2492
aa(lp2493
S'cdte_r-znte_a-cdte'
p2494
ag3
(g7
S'\x17\t\x06yF\xae\x1a@'
p2495
tp2496
Rp2497
aa(lp2498
S'cdte_r-znte_a-hgs'
p2499
ag3
(g7
S'\xc8I\xa5\x00\xec\x9c\x1a@'
p2500
tp2501
Rp2502
aa(lp2503
S'cdte_r-znte_a-hgse'
p2504
ag3
(g7
S'\xb7\xd4\xdf\xa5\x19\xce\x1a@'
p2505
tp2506
Rp2507
aa(lp2508
S'cdte_r-znte_a-hgte'
p2509
ag3
(g7
S'\xaa\x96\x12\x14\xae\xbc\x1a@'
p2510
tp2511
Rp2512
aa(lp2513
S'cdte_r-znte_a-zns'
p2514
ag3
(g7
S'\xb1\xbc!4k\x9c\x1a@'
p2515
tp2516
Rp2517
aa(lp2518
S'cdte_r-znte_a-znse'
p2519
ag3
(g7
S'\x99\xb2\x1b\xf2\x0e\x9e\x1a@'
p2520
tp2521
Rp2522
aa(lp2523
S'cdte_r-znte_a-znte'
p2524
ag3
(g7
S'\xcd\xa4\x9a\x9dx\xb0\x1a@'
p2525
tp2526
Rp2527
aa(lp2528
S'cge_r-c_a-c'
p2529
ag3
(g7
S'\x0e}n\x17{r\n@'
p2530
tp2531
Rp2532
aa(lp2533
S'cge_r-c_a-cge'
p2534
ag3
(g7
S'\x8c\x01\xeaO\xfa{\x07@'
p2535
tp2536
Rp2537
aa(lp2538
S'cge_r-c_a-ge'
p2539
ag3
(g7
S'o_a\xa20\x8e\x07@'
p2540
tp2541
Rp2542
aa(lp2543
S'cge_r-c_a-gesn'
p2544
ag3
(g7
S'4m=\x8d\xbc\x16\x07@'
p2545
tp2546
Rp2547
aa(lp2548
S'cge_r-c_a-si'
p2549
ag3
(g7
S'\xfbq\x12\xcb\xa4\xa0\x07@'
p2550
tp2551
Rp2552
aa(lp2553
S'cge_r-c_a-sic'
p2554
ag3
(g7
S':l\xa0\x98E\xdd\x08@'
p2555
tp2556
Rp2557
aa(lp2558
S'cge_r-c_a-sige'
p2559
ag3
(g7
S'\xe4\xde\xe3\x97\xc9\xa1\x07@'
p2560
tp2561
Rp2562
aa(lp2563
S'cge_r-c_a-sn'
p2564
ag3
(g7
S'\x00\x00\x00\x00\x00\x00\x00\x00'
p2565
tp2566
Rp2567
aa(lp2568
S'cge_r-c_a-snsi'
p2569
ag3
(g7
S'\xfd\xae7\xbe/$\x07@'
p2570
tp2571
Rp2572
aa(lp2573
S'cge_r-ge_a-c'
p2574
ag3
(g7
S'\xd7F\xa1=d\xc8\x0e@'
p2575
tp2576
Rp2577
aa(lp2578
S'cge_r-ge_a-cge'
p2579
ag3
(g7
S'\xa3`\xfe\xcf\xfd\n\t@'
p2580
tp2581
Rp2582
aa(lp2583
S'cge_r-ge_a-ge'
p2584
ag3
(g7
S'ZNP\x91O\xe8\x08@'
p2585
tp2586
Rp2587
aa(lp2588
S'cge_r-ge_a-gesn'
p2589
ag3
(g7
S'\xe8\xfe\xd7\x87b\x87\x08@'
p2590
tp2591
Rp2592
aa(lp2593
S'cge_r-ge_a-si'
p2594
ag3
(g7
S'e5_\x1e\xb78\t@'
p2595
tp2596
Rp2597
aa(lp2598
S'cge_r-ge_a-sic'
p2599
ag3
(g7
S'@!\x85\xedx\x8d\x0b@'
p2600
tp2601
Rp2602
aa(lp2603
S'cge_r-ge_a-sige'
p2604
ag3
(g7
S'!\x83\x14W\x82:\t@'
p2605
tp2606
Rp2607
aa(lp2608
S'cge_r-ge_a-sn'
p2609
ag3
(g7
S'\xb8U3\x97\x01\x00 @'
p2610
tp2611
Rp2612
aa(lp2613
S'cge_r-ge_a-snsi'
p2614
ag3
(g7
S'\xf2\xd4\xedB\xe9\xff\x1f@'
p2615
tp2616
Rp2617
aa(lp2618
S'cge_r-gesn_a-c'
p2619
ag3
(g7
S'\xb8\xc3{\xa1[\xd6\x0e@'
p2620
tp2621
Rp2622
aa(lp2623
S'cge_r-gesn_a-cge'
p2624
ag3
(g7
S'\x8f\xf5;OR\x9e\x0c@'
p2625
tp2626
Rp2627
aa(lp2628
S'cge_r-gesn_a-ge'
p2629
ag3
(g7
S'\xde\x1a\xd5\xbf\x08\x00 @'
p2630
tp2631
Rp2632
aa(lp2633
S'cge_r-gesn_a-gesn'
p2634
ag3
(g7
S'M\x1et\x8d\xfa\xff\x1f@'
p2635
tp2636
Rp2637
aa(lp2638
S'cge_r-gesn_a-si'
p2639
ag3
(g7
S"\x16\x19\xd8'\xbcD\x0c@"
p2640
tp2641
Rp2642
aa(lp2643
S'cge_r-gesn_a-sic'
p2644
ag3
(g7
S'\xdf\xf9\xff\x0f\xa1B\x0b@'
p2645
tp2646
Rp2647
aa(lp2648
S'cge_r-gesn_a-sige'
p2649
ag3
(g7
S'\xaa\x0fx\x98\x8eF\x0c@'
p2650
tp2651
Rp2652
aa(lp2653
S'cge_r-gesn_a-sn'
p2654
ag3
(g7
S'>P\xcf\x95\xfa\xff\x1f@'
p2655
tp2656
Rp2657
aa(lp2658
S'cge_r-gesn_a-snsi'
p2659
ag3
(g7
S'\xddH(\x00\x1ex\r@'
p2660
tp2661
Rp2662
aa(lp2663
S'cge_r-si_a-c'
p2664
ag3
(g7
S'nQ\xabE\xe6\xff\r@'
p2665
tp2666
Rp2667
aa(lp2668
S'cge_r-si_a-cge'
p2669
ag3
(g7
S'\x16r\x970!\xde\x08@'
p2670
tp2671
Rp2672
aa(lp2673
S'cge_r-si_a-ge'
p2674
ag3
(g7
S'!(\x05\xbaL\xca\x08@'
p2675
tp2676
Rp2677
aa(lp2678
S'cge_r-si_a-gesn'
p2679
ag3
(g7
S'M\x1et\x8d\xfa\xff\x1f@'
p2680
tp2681
Rp2682
aa(lp2683
S'cge_r-si_a-si'
p2684
ag3
(g7
S'6\x12\xf5\xa0\xe7\x16\t@'
p2685
tp2686
Rp2687
aa(lp2688
S'cge_r-si_a-sic'
p2689
ag3
(g7
S'\x18\xed\x13\xf3\xe2\xe0\n@'
p2690
tp2691
Rp2692
aa(lp2693
S'cge_r-si_a-sige'
p2694
ag3
(g7
S'N\xdb\xe79\xfd\xff\x08@'
p2695
tp2696
Rp2697
aa(lp2698
S'cge_r-si_a-sn'
p2699
ag3
(g7
S'\x00\x00\x00\x00\x00\x00\x00\x00'
p2700
tp2701
Rp2702
aa(lp2703
S'cge_r-si_a-snsi'
p2704
ag3
(g7
S']\xac\x1f\x8c%\x9f\x08@'
p2705
tp2706
Rp2707
aa(lp2708
S'cge_r-sic_a-c'
p2709
ag3
(g7
S'\x965\x1b\xe8\x99\n\x16@'
p2710
tp2711
Rp2712
aa(lp2713
S'cge_r-sic_a-cge'
p2714
ag3
(g7
S'\xbb\x17b\x84uQ\x0e@'
p2715
tp2716
Rp2717
aa(lp2718
S'cge_r-sic_a-ge'
p2719
ag3
(g7
S'\x86\x94\xc6b\xfc\xd3\r@'
p2720
tp2721
Rp2722
aa(lp2723
S'cge_r-sic_a-gesn'
p2724
ag3
(g7
S'M\x1et\x8d\xfa\xff\x1f@'
p2725
tp2726
Rp2727
aa(lp2728
S'cge_r-sic_a-si'
p2729
ag3
(g7
S'n\xd6)\xff[*\x0f@'
p2730
tp2731
Rp2732
aa(lp2733
S'cge_r-sic_a-sic'
p2734
ag3
(g7
S'\xd7U\x8a\x10\x0f\xaa\x13@'
p2735
tp2736
Rp2737
aa(lp2738
S'cge_r-sic_a-sige'
p2739
ag3
(g7
S'\xe8\xc86\xdf%,\x0f@'
p2740
tp2741
Rp2742
aa(lp2743
S'cge_r-sic_a-sn'
p2744
ag3
(g7
S'\x00\x00\x00\x00\x00\x00\x00\x00'
p2745
tp2746
Rp2747
aa(lp2748
S'cge_r-sic_a-snsi'
p2749
ag3
(g7
S'\xf2\xd4\xedB\xe9\xff\x1f@'
p2750
tp2751
Rp2752
aa(lp2753
S'cge_r-sige_a-c'
p2754
ag3
(g7
S'#\x94`\xcc\xc9\r\x0e@'
p2755
tp2756
Rp2757
aa(lp2758
S'cge_r-sige_a-cge'
p2759
ag3
(g7
S'\xcc\x92\xd1\xe5\x13\xb9\x08@'
p2760
tp2761
Rp2762
aa(lp2763
S'cge_r-sige_a-ge'
p2764
ag3
(g7
S'*\xb6\x87\r7\xa2\x08@'
p2765
tp2766
Rp2767
aa(lp2768
S'cge_r-sige_a-gesn'
p2769
ag3
(g7
S'`\xdbS$&B\x08@'
p2770
tp2771
Rp2772
aa(lp2773
S'cge_r-sige_a-si'
p2774
ag3
(g7
S'@\xcfd\x90|\xe4\x08@'
p2775
tp2776
Rp2777
aa(lp2778
S'cge_r-sige_a-sic'
p2779
ag3
(g7
S'2^>\xfe9\x19\x0b@'
p2780
tp2781
Rp2782
aa(lp2783
S'cge_r-sige_a-sige'
p2784
ag3
(g7
S'D\x00\xba\xb7\xac\xe5\x08@'
p2785
tp2786
Rp2787
aa(lp2788
S'cge_r-sige_a-sn'
p2789
ag3
(g7
S'\x00\x00\x00\x00\x00\x00\x00\x00'
p2790
tp2791
Rp2792
aa(lp2793
S'cge_r-sige_a-snsi'
p2794
ag3
(g7
S'+\xef\xf8\xe1\xcaX\x08@'
p2795
tp2796
Rp2797
aa(lp2798
S'cge_r-sn_a-c'
p2799
ag3
(g7
S'\x08\t\x93\xfd{r\x15@'
p2800
tp2801
Rp2802
aa(lp2803
S'cge_r-sn_a-cge'
p2804
ag3
(g7
S'\x96\xb5A\x1f\xf3\xff\x1f@'
p2805
tp2806
Rp2807
aa(lp2808
S'cge_r-sn_a-ge'
p2809
ag3
(g7
S'o\x9e\xe9\xfd?\x07\x12@'
p2810
tp2811
Rp2812
aa(lp2813
S'cge_r-sn_a-gesn'
p2814
ag3
(g7
S'\xc3\x1b\xb53\xd0u\x12@'
p2815
tp2816
Rp2817
aa(lp2818
S'cge_r-sn_a-si'
p2819
ag3
(g7
S'\x03\xd2!\xae\x9a\xd3\x11@'
p2820
tp2821
Rp2822
aa(lp2823
S'cge_r-sn_a-sic'
p2824
ag3
(g7
S'\xb8\x8b\xfeR\x0b\x00 @'
p2825
tp2826
Rp2827
aa(lp2828
S'cge_r-sn_a-sige'
p2829
ag3
(g7
S'\x947\x86\xa9T\xd4\x11@'
p2830
tp2831
Rp2832
aa(lp2833
S'cge_r-sn_a-sn'
p2834
ag3
(g7
S'\x00\x00\x00\x00\x00\x00\x00\x00'
p2835
tp2836
Rp2837
aa(lp2838
S'cge_r-sn_a-snsi'
p2839
ag3
(g7
S'\xf2\xd4\xedB\xe9\xff\x1f@'
p2840
tp2841
Rp2842
aa(lp2843
S'cge_r-snsi_a-c'
p2844
ag3
(g7
S'\xd8a_b\xf5\xff\x1f@'
p2845
tp2846
Rp2847
aa(lp2848
S'cge_r-snsi_a-cge'
p2849
ag3
(g7
S'\xd15\x9a\xd7\xbd=\x0c@'
p2850
tp2851
Rp2852
aa(lp2853
S'cge_r-snsi_a-ge'
p2854
ag3
(g7
S'\xde\x1a\xd5\xbf\x08\x00 @'
p2855
tp2856
Rp2857
aa(lp2858
S'cge_r-snsi_a-gesn'
p2859
ag3
(g7
S'M\x1et\x8d\xfa\xff\x1f@'
p2860
tp2861
Rp2862
aa(lp2863
S'cge_r-snsi_a-si'
p2864
ag3
(g7
S'\x81\x0f\xb6\x08\xed\xff\x1f@'
p2865
tp2866
Rp2867
aa(lp2868
S'cge_r-snsi_a-sic'
p2869
ag3
(g7
S'\xb8\x8b\xfeR\x0b\x00 @'
p2870
tp2871
Rp2872
aa(lp2873
S'cge_r-snsi_a-sige'
p2874
ag3
(g7
S'\xb8q\x9f\xef\xff\xff\x1f@'
p2875
tp2876
Rp2877
aa(lp2878
S'cge_r-snsi_a-sn'
p2879
ag3
(g7
S'\xf6yK\xe2\xfa\xff\x1f@'
p2880
tp2881
Rp2882
aa(lp2883
S'cge_r-snsi_a-snsi'
p2884
ag3
(g7
S'\xf2\xd4\xedB\xe9\xff\x1f@'
p2885
tp2886
Rp2887
aa(lp2888
S'gaas_r-alas_a-alas'
p2889
ag3
(g7
S'(~\x9f}\xfah\xdd?'
p2890
tp2891
Rp2892
aa(lp2893
S'gaas_r-alas_a-alp'
p2894
ag3
(g7
S'V"P\xfc\xa5\xe4\xdb?'
p2895
tp2896
Rp2897
aa(lp2898
S'gaas_r-alas_a-alsb'
p2899
ag3
(g7
S'P/P\x83\xfdZ\xdd?'
p2900
tp2901
Rp2902
aa(lp2903
S'gaas_r-alas_a-gaas'
p2904
ag3
(g7
S'\xa4\x19"\x05\x14i\xdd?'
p2905
tp2906
Rp2907
aa(lp2908
S'gaas_r-alas_a-gap'
p2909
ag3
(g7
S'\x9b\x1b\xaf!\xfe\xcb\xdb?'
p2910
tp2911
Rp2912
aa(lp2913
S'gaas_r-alas_a-gasb'
p2914
ag3
(g7
S'rB\xd8\xf3~(\xdd?'
p2915
tp2916
Rp2917
aa(lp2918
S'gaas_r-alas_a-inas'
p2919
ag3
(g7
S'\xf2]\x80\xac_\xfe\xdc?'
p2920
tp2921
Rp2922
aa(lp2923
S'gaas_r-alas_a-inp'
p2924
ag3
(g7
S'\x9c\x13\xdd\x1dNl\xde?'
p2925
tp2926
Rp2927
aa(lp2928
S'gaas_r-alas_a-insb'
p2929
ag3
(g7
S'\n\xf1^/ft\xdd?'
p2930
tp2931
Rp2932
aa(lp2933
S'gaas_r-alp_a-alas'
p2934
ag3
(g7
S'@QjMuY\xe9?'
p2935
tp2936
Rp2937
aa(lp2938
S'gaas_r-alp_a-alp'
p2939
ag3
(g7
S'KC\xa1,\xbez\xe7?'
p2940
tp2941
Rp2942
aa(lp2943
S'gaas_r-alp_a-alsb'
p2944
ag3
(g7
S'^\x8b\x08\x8dC\xb8\xe4?'
p2945
tp2946
Rp2947
aa(lp2948
S'gaas_r-alp_a-gaas'
p2949
ag3
(g7
S'\x19!\xff\xb0\xf5a\xe9?'
p2950
tp2951
Rp2952
aa(lp2953
S'gaas_r-alp_a-gap'
p2954
ag3
(g7
S'\xa0\xf3lw\x08Z\xe7?'
p2955
tp2956
Rp2957
aa(lp2958
S'gaas_r-alp_a-gasb'
p2959
ag3
(g7
S"\xa1\xd3\x15*\xee'\xe7?"
p2960
tp2961
Rp2962
aa(lp2963
S'gaas_r-alp_a-inas'
p2964
ag3
(g7
S'\xec\x9eh\x84\xe61\xe7?'
p2965
tp2966
Rp2967
aa(lp2968
S'gaas_r-alp_a-inp'
p2969
ag3
(g7
S'2\x15\xcd\xfb\x90W\xe7?'
p2970
tp2971
Rp2972
aa(lp2973
S'gaas_r-alp_a-insb'
p2974
ag3
(g7
S'\x14\x12o\xa0\xb4L\xe3?'
p2975
tp2976
Rp2977
aa(lp2978
S'gaas_r-alsb_a-alas'
p2979
ag3
(g7
S'^\xde\xed\x08\xb2t\xf9?'
p2980
tp2981
Rp2982
aa(lp2983
S'gaas_r-alsb_a-alp'
p2984
ag3
(g7
S'K\x00\xa4fe\x95\xf9?'
p2985
tp2986
Rp2987
aa(lp2988
S'gaas_r-alsb_a-alsb'
p2989
ag3
(g7
S'@\x96\xd8\xdd\x16Q\xfb?'
p2990
tp2991
Rp2992
aa(lp2993
S'gaas_r-alsb_a-gaas'
p2994
ag3
(g7
S'\x0e\xf4\x96\xb2\xc6n\xf9?'
p2995
tp2996
Rp2997
aa(lp2998
S'gaas_r-alsb_a-gap'
p2999
ag3
(g7
S'\xef\xc0\xc5\x1a\x890\xf9?'
p3000
tp3001
Rp3002
aa(lp3003
S'gaas_r-alsb_a-gasb'
p3004
ag3
(g7
S'M\xb7:\xc4\x18+\xfb?'
p3005
tp3006
Rp3007
aa(lp3008
S'gaas_r-alsb_a-inas'
p3009
ag3
(g7
S'\xa1\xae\xabfC\xd1\xfa?'
p3010
tp3011
Rp3012
aa(lp3013
S'gaas_r-alsb_a-inp'
p3014
ag3
(g7
S'\x85\xd8,\x84\xeee\xfa?'
p3015
tp3016
Rp3017
aa(lp3018
S'gaas_r-alsb_a-insb'
p3019
ag3
(g7
S'<\x96\xa0V\xda<\xfc?'
p3020
tp3021
Rp3022
aa(lp3023
S'gaas_r-gap_a-alas'
p3024
ag3
(g7
S'\xbf\xdbS\xaeG\xa1\xe3?'
p3025
tp3026
Rp3027
aa(lp3028
S'gaas_r-gap_a-alp'
p3029
ag3
(g7
S'\xc5o|YJ\xfe\xe2?'
p3030
tp3031
Rp3032
aa(lp3033
S'gaas_r-gap_a-alsb'
p3034
ag3
(g7
S'zJ\xefB\x04\x81\xe2?'
p3035
tp3036
Rp3037
aa(lp3038
S'gaas_r-gap_a-gaas'
p3039
ag3
(g7
S'\x9e<\x85\x14\x8f\xab\xe3?'
p3040
tp3041
Rp3042
aa(lp3043
S'gaas_r-gap_a-gap'
p3044
ag3
(g7
S"\x82!\xc4\xac'\xdd\xe2?"
p3045
tp3046
Rp3047
aa(lp3048
S'gaas_r-gap_a-gasb'
p3049
ag3
(g7
S'1^`\x1f\xe1q\xe2?'
p3050
tp3051
Rp3052
aa(lp3053
S'gaas_r-gap_a-inas'
p3054
ag3
(g7
S'\x82\x1aV\r\xaf\xb6\xe2?'
p3055
tp3056
Rp3057
aa(lp3058
S'gaas_r-gap_a-inp'
p3059
ag3
(g7
S'3<`\x92v\x93\xe3?'
p3060
tp3061
Rp3062
aa(lp3063
S'gaas_r-gap_a-insb'
p3064
ag3
(g7
S'\xc6L\xea\xf9\xd4\xca\xe2?'
p3065
tp3066
Rp3067
aa(lp3068
S'gaas_r-gasb_a-alas'
p3069
ag3
(g7
S'l*\xe4]\xcf\x16\xfa?'
p3070
tp3071
Rp3072
aa(lp3073
S'gaas_r-gasb_a-alp'
p3074
ag3
(g7
S'\xa7\x12\xf7\x83~0\xfa?'
p3075
tp3076
Rp3077
aa(lp3078
S'gaas_r-gasb_a-alsb'
p3079
ag3
(g7
S'\x1b|\xf7\xcb3p\xf9?'
p3080
tp3081
Rp3082
aa(lp3083
S'gaas_r-gasb_a-gaas'
p3084
ag3
(g7
S'\xafV\xbeM\xdf\x9f\xf9?'
p3085
tp3086
Rp3087
aa(lp3088
S'gaas_r-gasb_a-gap'
p3089
ag3
(g7
S'\xa9\x8c5Y\xfb\xf2\xfa?'
p3090
tp3091
Rp3092
aa(lp3093
S'gaas_r-gasb_a-gasb'
p3094
ag3
(g7
S'\xb6\xda\x9d\x918z\xf9?'
p3095
tp3096
Rp3097
aa(lp3098
S'gaas_r-gasb_a-inas'
p3099
ag3
(g7
S'l&}\xe57~\xf9?'
p3100
tp3101
Rp3102
aa(lp3103
S'gaas_r-gasb_a-inp'
p3104
ag3
(g7
S'H\rU!\xb6\xc1\xf9?'
p3105
tp3106
Rp3107
aa(lp3108
S'gaas_r-gasb_a-insb'
p3109
ag3
(g7
S'\x8fBN\xf7\x11q\xf9?'
p3110
tp3111
Rp3112
aa(lp3113
S'gaas_r-inas_a-alas'
p3114
ag3
(g7
S'*\xa8\x0e\xbf\xea \xe8?'
p3115
tp3116
Rp3117
aa(lp3118
S'gaas_r-inas_a-alp'
p3119
ag3
(g7
S'\x1dd\xf5\x12\xebt\xe8?'
p3120
tp3121
Rp3122
aa(lp3123
S'gaas_r-inas_a-alsb'
p3124
ag3
(g7
S'\x87\xa4i5\xd1\xb4\xe6?'
p3125
tp3126
Rp3127
aa(lp3128
S'gaas_r-inas_a-gaas'
p3129
ag3
(g7
S'J+4\x16W\xef\xe7?'
p3130
tp3131
Rp3132
aa(lp3133
S'gaas_r-inas_a-gap'
p3134
ag3
(g7
S')\xe4\x93@\x06%\xe8?'
p3135
tp3136
Rp3137
aa(lp3138
S'gaas_r-inas_a-gasb'
p3139
ag3
(g7
S'x\xc0\t\x10\xcd\xf7\xe6?'
p3140
tp3141
Rp3142
aa(lp3143
S'gaas_r-inas_a-inas'
p3144
ag3
(g7
S'fhu\xf9\xa7\xf0\xe6?'
p3145
tp3146
Rp3147
aa(lp3148
S'gaas_r-inas_a-inp'
p3149
ag3
(g7
S'\xadR\t\xcc\xa5\xe8\xe7?'
p3150
tp3151
Rp3152
aa(lp3153
S'gaas_r-inas_a-insb'
p3154
ag3
(g7
S'\x12\x1c\xdbk\xb8\x93\xe6?'
p3155
tp3156
Rp3157
aa(lp3158
S'gaas_r-inp_a-alas'
p3159
ag3
(g7
S'\x8d\x9eet\x95\xf3\xee?'
p3160
tp3161
Rp3162
aa(lp3163
S'gaas_r-inp_a-alp'
p3164
ag3
(g7
S'XH\x9e\x82\xceH\xef?'
p3165
tp3166
Rp3167
aa(lp3168
S'gaas_r-inp_a-alsb'
p3169
ag3
(g7
S'\xca\x9f?\xfa\x1a\xaa\xec?'
p3170
tp3171
Rp3172
aa(lp3173
S'gaas_r-inp_a-gaas'
p3174
ag3
(g7
S'\xc8s\xf5\x89V\xa1\xee?'
p3175
tp3176
Rp3177
aa(lp3178
S'gaas_r-inp_a-gap'
p3179
ag3
(g7
S'\xe0\x0b\xa9\x0b\xa6L\xef?'
p3180
tp3181
Rp3182
aa(lp3183
S'gaas_r-inp_a-gasb'
p3184
ag3
(g7
S'\x1a\xce_\xfa\xa4\xce\xec?'
p3185
tp3186
Rp3187
aa(lp3188
S'gaas_r-inp_a-inas'
p3189
ag3
(g7
S'\x1b\x8bs\x86\xeeH\xec?'
p3190
tp3191
Rp3192
aa(lp3193
S'gaas_r-inp_a-inp'
p3194
ag3
(g7
S'o\xb3X(\xe3m\xee?'
p3195
tp3196
Rp3197
aa(lp3198
S'gaas_r-inp_a-insb'
p3199
ag3
(g7
S'h{\xe4"Y\x15\xea?'
p3200
tp3201
Rp3202
aa(lp3203
S'gaas_r-insb_a-alas'
p3204
ag3
(g7
S'\xb3\xd9\xa6\xdc7a\xfd?'
p3205
tp3206
Rp3207
aa(lp3208
S'gaas_r-insb_a-alp'
p3209
ag3
(g7
S'\xb4\x81x\x8c+1\xfd?'
p3210
tp3211
Rp3212
aa(lp3213
S'gaas_r-insb_a-alsb'
p3214
ag3
(g7
S'\xacD\xc6\x95g\xc6\xfe?'
p3215
tp3216
Rp3217
aa(lp3218
S'gaas_r-insb_a-gaas'
p3219
ag3
(g7
S',\xb9\xda\x93\xe5^\xfd?'
p3220
tp3221
Rp3222
aa(lp3223
S'gaas_r-insb_a-gap'
p3224
ag3
(g7
S'q\xdf\x87Jr9\xfd?'
p3225
tp3226
Rp3227
aa(lp3228
S'gaas_r-insb_a-gasb'
p3229
ag3
(g7
S'\xae\xd9u\xf1\xca\x01\xff?'
p3230
tp3231
Rp3232
aa(lp3233
S'gaas_r-insb_a-inas'
p3234
ag3
(g7
S'\x83\x13^\xc2\xdb\x89\xfe?'
p3235
tp3236
Rp3237
aa(lp3238
S'gaas_r-insb_a-inp'
p3239
ag3
(g7
S'\x8aw%\xe9:\xf5\xfd?'
p3240
tp3241
Rp3242
aa(lp3243
S'gaas_r-insb_a-insb'
p3244
ag3
(g7
S'k\xde\xd8\xa5l\xaa\xff?'
p3245
tp3246
Rp3247
aa(lp3248
S'gap_r-alas_a-alas'
p3249
ag3
(g7
S'\xd7\xe9\x85qg}\xe8?'
p3250
tp3251
Rp3252
aa(lp3253
S'gap_r-alas_a-alp'
p3254
ag3
(g7
S'\xe7:\xb7 T\xb4\xe7?'
p3255
tp3256
Rp3257
aa(lp3258
S'gap_r-alas_a-alsb'
p3259
ag3
(g7
S'o\x86\xe7\xc9\xc3\xb9\xea?'
p3260
tp3261
Rp3262
aa(lp3263
S'gap_r-alas_a-gaas'
p3264
ag3
(g7
S'\xfdm>t\xfa|\xe8?'
p3265
tp3266
Rp3267
aa(lp3268
S'gap_r-alas_a-gap'
p3269
ag3
(g7
S'\x15L\xc2\x85\x05\xa7\xe7?'
p3270
tp3271
Rp3272
aa(lp3273
S'gap_r-alas_a-gasb'
p3274
ag3
(g7
S'\xe5\xe5\xe5\x80^\x88\xea?'
p3275
tp3276
Rp3277
aa(lp3278
S'gap_r-alas_a-inas'
p3279
ag3
(g7
S'\x06UR`L\x9c\xea?'
p3280
tp3281
Rp3282
aa(lp3283
S'gap_r-alas_a-inp'
p3284
ag3
(g7
S'\xf2\xa6\xa0\xd0V]\xe9?'
p3285
tp3286
Rp3287
aa(lp3288
S'gap_r-alas_a-insb'
p3289
ag3
(g7
S'\x17\x86\xed\xc5{A\xec?'
p3290
tp3291
Rp3292
aa(lp3293
S'gap_r-alp_a-alas'
p3294
ag3
(g7
S'\x1c}7\xe8\x15k\xdb?'
p3295
tp3296
Rp3297
aa(lp3298
S'gap_r-alp_a-alp'
p3299
ag3
(g7
S'*\xbf\x18\xd8\x19\x87\xda?'
p3300
tp3301
Rp3302
aa(lp3303
S'gap_r-alp_a-alsb'
p3304
ag3
(g7
S'gR\xdatk\n\xdb?'
p3305
tp3306
Rp3307
aa(lp3308
S'gap_r-alp_a-gaas'
p3309
ag3
(g7
S'\x18\xd4l=\x87a\xdb?'
p3310
tp3311
Rp3312
aa(lp3313
S'gap_r-alp_a-gap'
p3314
ag3
(g7
S'K\xd6\x9d\xeb\x89\x87\xda?'
p3315
tp3316
Rp3317
aa(lp3318
S'gap_r-alp_a-gasb'
p3319
ag3
(g7
S'sx_1\xd49\xdd?'
p3320
tp3321
Rp3322
aa(lp3323
S'gap_r-alp_a-inas'
p3324
ag3
(g7
S'El0\xb5c\xe2\xdc?'
p3325
tp3326
Rp3327
aa(lp3328
S'gap_r-alp_a-inp'
p3329
ag3
(g7
S'\xa8\x1c\x01\x96\xf6\xb4\xda?'
p3330
tp3331
Rp3332
aa(lp3333
S'gap_r-alp_a-insb'
p3334
ag3
(g7
S'\x83\x1a0\xfe`\x06\xdb?'
p3335
tp3336
Rp3337
aa(lp3338
S'gap_r-alsb_a-alas'
p3339
ag3
(g7
S'\xca}\xc2\xa7(\x1a\x01@'
p3340
tp3341
Rp3342
aa(lp3343
S'gap_r-alsb_a-alp'
p3344
ag3
(g7
S',3\x8a\x1f\xd2+\x01@'
p3345
tp3346
Rp3347
aa(lp3348
S'gap_r-alsb_a-alsb'
p3349
ag3
(g7
S'\x0e\x08\x8a\xd6\xca\xcd\x01@'
p3350
tp3351
Rp3352
aa(lp3353
S'gap_r-alsb_a-gaas'
p3354
ag3
(g7
S'\x81V\x7f&J\x1b\x01@'
p3355
tp3356
Rp3357
aa(lp3358
S'gap_r-alsb_a-gap'
p3359
ag3
(g7
S'A\xc1\x00\xe2\x16\xf1\x00@'
p3360
tp3361
Rp3362
aa(lp3363
S'gap_r-alsb_a-gasb'
p3364
ag3
(g7
S']\xd0$ME\xb7\x01@'
p3365
tp3366
Rp3367
aa(lp3368
S'gap_r-alsb_a-inas'
p3369
ag3
(g7
S'\xe6Y{\xd4\xac\x99\x01@'
p3370
tp3371
Rp3372
aa(lp3373
S'gap_r-alsb_a-inp'
p3374
ag3
(g7
S'\x13\x8e\xf3\x7fau\x01@'
p3375
tp3376
Rp3377
aa(lp3378
S'gap_r-alsb_a-insb'
p3379
ag3
(g7
S'\\,\x8b\x86\x06R\x02@'
p3380
tp3381
Rp3382
aa(lp3383
S'gap_r-gaas_a-alas'
p3384
ag3
(g7
S'\xbf\xdbS\xaeG\xa1\xe3?'
p3385
tp3386
Rp3387
aa(lp3388
S'gap_r-gaas_a-alp'
p3389
ag3
(g7
S'\xc5o|YJ\xfe\xe2?'
p3390
tp3391
Rp3392
aa(lp3393
S'gap_r-gaas_a-alsb'
p3394
ag3
(g7
S'zJ\xefB\x04\x81\xe2?'
p3395
tp3396
Rp3397
aa(lp3398
S'gap_r-gaas_a-gaas'
p3399
ag3
(g7
S'\x9e<\x85\x14\x8f\xab\xe3?'
p3400
tp3401
Rp3402
aa(lp3403
S'gap_r-gaas_a-gap'
p3404
ag3
(g7
S"\x82!\xc4\xac'\xdd\xe2?"
p3405
tp3406
Rp3407
aa(lp3408
S'gap_r-gaas_a-gasb'
p3409
ag3
(g7
S'1^`\x1f\xe1q\xe2?'
p3410
tp3411
Rp3412
aa(lp3413
S'gap_r-gaas_a-inas'
p3414
ag3
(g7
S'\x82\x1aV\r\xaf\xb6\xe2?'
p3415
tp3416
Rp3417
aa(lp3418
S'gap_r-gaas_a-inp'
p3419
ag3
(g7
S'3<`\x92v\x93\xe3?'
p3420
tp3421
Rp3422
aa(lp3423
S'gap_r-gaas_a-insb'
p3424
ag3
(g7
S'\xc6L\xea\xf9\xd4\xca\xe2?'
p3425
tp3426
Rp3427
aa(lp3428
S'gap_r-gasb_a-alas'
p3429
ag3
(g7
S'\x89=N\x1a=\xe7\x01@'
p3430
tp3431
Rp3432
aa(lp3433
S'gap_r-gasb_a-alp'
p3434
ag3
(g7
S'\xb6\xce\x98H\xe8\xc2\x01@'
p3435
tp3436
Rp3437
aa(lp3438
S'gap_r-gasb_a-alsb'
p3439
ag3
(g7
S']\xbf=\x87\xb7L\x01@'
p3440
tp3441
Rp3442
aa(lp3443
S'gap_r-gasb_a-gaas'
p3444
ag3
(g7
S'\xbb/x\x13\xd8\xae\x01@'
p3445
tp3446
Rp3447
aa(lp3448
S'gap_r-gasb_a-gap'
p3449
ag3
(g7
S'\xa37\x95\x03[\x16\x02@'
p3450
tp3451
Rp3452
aa(lp3453
S'gap_r-gasb_a-gasb'
p3454
ag3
(g7
S'\x1a\xef\x15\xf3KL\x01@'
p3455
tp3456
Rp3457
aa(lp3458
S'gap_r-gasb_a-inas'
p3459
ag3
(g7
S'\xa1\x8e#~4`\x01@'
p3460
tp3461
Rp3462
aa(lp3463
S'gap_r-gasb_a-inp'
p3464
ag3
(g7
S'\xf4-\xa1Q\xbc\xbb\x01@'
p3465
tp3466
Rp3467
aa(lp3468
S'gap_r-gasb_a-insb'
p3469
ag3
(g7
S'\xfc\xf4P\x1fnb\x01@'
p3470
tp3471
Rp3472
aa(lp3473
S'gap_r-inas_a-alas'
p3474
ag3
(g7
S'\xfc\xd7\xaf\xcc\xcd|\xf0?'
p3475
tp3476
Rp3477
aa(lp3478
S'gap_r-inas_a-alp'
p3479
ag3
(g7
S'\x0e\x0f\xf8\xa8\xe0l\xf0?'
p3480
tp3481
Rp3482
aa(lp3483
S'gap_r-inas_a-alsb'
p3484
ag3
(g7
S'3qXBv\xf5\xf0?'
p3485
tp3486
Rp3487
aa(lp3488
S'gap_r-inas_a-gaas'
p3489
ag3
(g7
S'\xd2\x9bC\x97\xa8,\xf0?'
p3490
tp3491
Rp3492
aa(lp3493
S'gap_r-inas_a-gap'
p3494
ag3
(g7
S'm\x9f\t\xafI\x11\xf0?'
p3495
tp3496
Rp3497
aa(lp3498
S'gap_r-inas_a-gasb'
p3499
ag3
(g7
S'\x92R\xf0\xf6)\xb1\xf0?'
p3500
tp3501
Rp3502
aa(lp3503
S'gap_r-inas_a-inas'
p3504
ag3
(g7
S'8\xbd(\xca\x8e\xb1\xf0?'
p3505
tp3506
Rp3507
aa(lp3508
S'gap_r-inas_a-inp'
p3509
ag3
(g7
S'\x1aA\xeb2pe\xf0?'
p3510
tp3511
Rp3512
aa(lp3513
S'gap_r-inas_a-insb'
p3514
ag3
(g7
S'\xbf\xfb\xd21\xedt\xf1?'
p3515
tp3516
Rp3517
aa(lp3518
S'gap_r-inp_a-alas'
p3519
ag3
(g7
S'\xed\xdc\xdf%q\xc2\xe6?'
p3520
tp3521
Rp3522
aa(lp3523
S'gap_r-inp_a-alp'
p3524
ag3
(g7
S'>\x17\xf6Y\x04t\xe7?'
p3525
tp3526
Rp3527
aa(lp3528
S'gap_r-inp_a-alsb'
p3529
ag3
(g7
S'\xb5\x84\x8d:9\x96\xe6?'
p3530
tp3531
Rp3532
aa(lp3533
S'gap_r-inp_a-gaas'
p3534
ag3
(g7
S'\x87\xd4R\xf2\x96\xdc\xe6?'
p3535
tp3536
Rp3537
aa(lp3538
S'gap_r-inp_a-gap'
p3539
ag3
(g7
S'\x15j.\xa7V\x87\xe7?'
p3540
tp3541
Rp3542
aa(lp3543
S'gap_r-inp_a-gasb'
p3544
ag3
(g7
S'\xcbXA3I\xa7\xe6?'
p3545
tp3546
Rp3547
aa(lp3548
S'gap_r-inp_a-inas'
p3549
ag3
(g7
S'\xbd\xa6We\x95\x13\xe6?'
p3550
tp3551
Rp3552
aa(lp3553
S'gap_r-inp_a-inp'
p3554
ag3
(g7
S'\xcehU\xf4@\x88\xe6?'
p3555
tp3556
Rp3557
aa(lp3558
S'gap_r-inp_a-insb'
p3559
ag3
(g7
S's(\xacJ\x97\t\xe5?'
p3560
tp3561
Rp3562
aa(lp3563
S'gap_r-insb_a-alas'
p3564
ag3
(g7
S'3V\x9axO\xcd\x02@'
p3565
tp3566
Rp3567
aa(lp3568
S'gap_r-insb_a-alp'
p3569
ag3
(g7
S't`7\x10\xe5\x9c\x02@'
p3570
tp3571
Rp3572
aa(lp3573
S'gap_r-insb_a-alsb'
p3574
ag3
(g7
S'1\xff\xb3/\x01l\x03@'
p3575
tp3576
Rp3577
aa(lp3578
S'gap_r-insb_a-gaas'
p3579
ag3
(g7
S'\xc4\\8|T\xce\x02@'
p3580
tp3581
Rp3582
aa(lp3583
S'gap_r-insb_a-gap'
p3584
ag3
(g7
S'\x97h\x0e\\\x17\x99\x02@'
p3585
tp3586
Rp3587
aa(lp3588
S'gap_r-insb_a-gasb'
p3589
ag3
(g7
S'\xfbCI\xc1\x8f\x84\x03@'
p3590
tp3591
Rp3592
aa(lp3593
S'gap_r-insb_a-inas'
p3594
ag3
(g7
S'\xe78\r\xe8\xdeW\x03@'
p3595
tp3596
Rp3597
aa(lp3598
S'gap_r-insb_a-inp'
p3599
ag3
(g7
S'\xdc`\xab\xacg\x0b\x03@'
p3600
tp3601
Rp3602
aa(lp3603
S'gap_r-insb_a-insb'
p3604
ag3
(g7
S' 0m;\x80\xfe\x03@'
p3605
tp3606
Rp3607
aa(lp3608
S'gasb_r-alas_a-alas'
p3609
ag3
(g7
S'\xaazu\xf0\xd3\x18\xfd?'
p3610
tp3611
Rp3612
aa(lp3613
S'gasb_r-alas_a-alp'
p3614
ag3
(g7
S'\x1f*N\x85\xb8\xf4\xfc?'
p3615
tp3616
Rp3617
aa(lp3618
S'gasb_r-alas_a-alsb'
p3619
ag3
(g7
S'\xee\x93\x80v\xab@\xfb?'
p3620
tp3621
Rp3622
aa(lp3623
S'gasb_r-alas_a-gaas'
p3624
ag3
(g7
S'\x9f!\x0f~g\x89\xfc?'
p3625
tp3626
Rp3627
aa(lp3628
S'gasb_r-alas_a-gap'
p3629
ag3
(g7
S'\xfb~\xb1\xb7\x9c\xc5\xfd?'
p3630
tp3631
Rp3632
aa(lp3633
S'gasb_r-alas_a-gasb'
p3634
ag3
(g7
S'E{\x8c\xb6\xaeS\xfb?'
p3635
tp3636
Rp3637
aa(lp3638
S'gasb_r-alas_a-inas'
p3639
ag3
(g7
S'c\x0b\x19\x8cnP\xfb?'
p3640
tp3641
Rp3642
aa(lp3643
S'gasb_r-alas_a-inp'
p3644
ag3
(g7
S'\x86\xc7L\xb8Q\x87\xfc?'
p3645
tp3646
Rp3647
aa(lp3648
S'gasb_r-alas_a-insb'
p3649
ag3
(g7
S'\xbe\x81XO{\xcd\xfa?'
p3650
tp3651
Rp3652
aa(lp3653
S'gasb_r-alp_a-alas'
p3654
ag3
(g7
S'h\x9f\xbe\xf74\x1f\x03@'
p3655
tp3656
Rp3657
aa(lp3658
S'gasb_r-alp_a-alp'
p3659
ag3
(g7
S'<\x19\xac\xc5\xac\xc4\x02@'
p3660
tp3661
Rp3662
aa(lp3663
S'gasb_r-alp_a-alsb'
p3664
ag3
(g7
S'\x96\xd7\xac\\\xc6\x9e\x01@'
p3665
tp3666
Rp3667
aa(lp3668
S'gasb_r-alp_a-gaas'
p3669
ag3
(g7
S'\t\xdb\xfd\xe7\x8e\xde\x02@'
p3670
tp3671
Rp3672
aa(lp3673
S'gasb_r-alp_a-gap'
p3674
ag3
(g7
S'\xb4\xc7\xb8$\xc8\x1f\x03@'
p3675
tp3676
Rp3677
aa(lp3678
S'gasb_r-alp_a-gasb'
p3679
ag3
(g7
S'\xe7\xe7w\xd5\x10:\x02@'
p3680
tp3681
Rp3682
aa(lp3683
S'gasb_r-alp_a-inas'
p3684
ag3
(g7
S'R\xa7x\xe9\xabD\x02@'
p3685
tp3686
Rp3687
aa(lp3688
S'gasb_r-alp_a-inp'
p3689
ag3
(g7
S'\xa0\x92\xe2\xd2\x13e\x02@'
p3690
tp3691
Rp3692
aa(lp3693
S'gasb_r-alp_a-insb'
p3694
ag3
(g7
S'\x08Dh\x1e\x8eM\x01@'
p3695
tp3696
Rp3697
aa(lp3698
S'gasb_r-alsb_a-alas'
p3699
ag3
(g7
S'\xa1\xe2\xd05\x1b\x10\xde?'
p3700
tp3701
Rp3702
aa(lp3703
S'gasb_r-alsb_a-alp'
p3704
ag3
(g7
S'\xf0\xd7<Cl5\xdd?'
p3705
tp3706
Rp3707
aa(lp3708
S'gasb_r-alsb_a-alsb'
p3709
ag3
(g7
S'\x9c\xdb\xb2c\xde\x89\xdb?'
p3710
tp3711
Rp3712
aa(lp3713
S'gasb_r-alsb_a-gaas'
p3714
ag3
(g7
S'\xd4\x18\x1a\xd8\x11;\xdd?'
p3715
tp3716
Rp3717
aa(lp3718
S'gasb_r-alsb_a-gap'
p3719
ag3
(g7
S'\xb71\xe6\xb2\xd4a\xde?'
p3720
tp3721
Rp3722
aa(lp3723
S'gasb_r-alsb_a-gasb'
p3724
ag3
(g7
S'!u\x1b\xae^\xee\xdb?'
p3725
tp3726
Rp3727
aa(lp3728
S'gasb_r-alsb_a-inas'
p3729
ag3
(g7
S'\xa3\xef\x85\xb2\xa2C\xdc?'
p3730
tp3731
Rp3732
aa(lp3733
S'gasb_r-alsb_a-inp'
p3734
ag3
(g7
S'($\x15\xf1\x8f\xc9\xdd?'
p3735
tp3736
Rp3737
aa(lp3738
S'gasb_r-alsb_a-insb'
p3739
ag3
(g7
S'T\xaa\xcc\xd1\xf2u\xe0?'
p3740
tp3741
Rp3742
aa(lp3743
S'gasb_r-gaas_a-alas'
p3744
ag3
(g7
S'l*\xe4]\xcf\x16\xfa?'
p3745
tp3746
Rp3747
aa(lp3748
S'gasb_r-gaas_a-alp'
p3749
ag3
(g7
S'\xa7\x12\xf7\x83~0\xfa?'
p3750
tp3751
Rp3752
aa(lp3753
S'gasb_r-gaas_a-alsb'
p3754
ag3
(g7
S'\x1b|\xf7\xcb3p\xf9?'
p3755
tp3756
Rp3757
aa(lp3758
S'gasb_r-gaas_a-gaas'
p3759
ag3
(g7
S'\xafV\xbeM\xdf\x9f\xf9?'
p3760
tp3761
Rp3762
aa(lp3763
S'gasb_r-gaas_a-gap'
p3764
ag3
(g7
S'\xa9\x8c5Y\xfb\xf2\xfa?'
p3765
tp3766
Rp3767
aa(lp3768
S'gasb_r-gaas_a-gasb'
p3769
ag3
(g7
S'\xb6\xda\x9d\x918z\xf9?'
p3770
tp3771
Rp3772
aa(lp3773
S'gasb_r-gaas_a-inas'
p3774
ag3
(g7
S'l&}\xe57~\xf9?'
p3775
tp3776
Rp3777
aa(lp3778
S'gasb_r-gaas_a-inp'
p3779
ag3
(g7
S'H\rU!\xb6\xc1\xf9?'
p3780
tp3781
Rp3782
aa(lp3783
S'gasb_r-gaas_a-insb'
p3784
ag3
(g7
S'\x8fBN\xf7\x11q\xf9?'
p3785
tp3786
Rp3787
aa(lp3788
S'gasb_r-gap_a-alas'
p3789
ag3
(g7
S'\x89=N\x1a=\xe7\x01@'
p3790
tp3791
Rp3792
aa(lp3793
S'gasb_r-gap_a-alp'
p3794
ag3
(g7
S'\xb6\xce\x98H\xe8\xc2\x01@'
p3795
tp3796
Rp3797
aa(lp3798
S'gasb_r-gap_a-alsb'
p3799
ag3
(g7
S']\xbf=\x87\xb7L\x01@'
p3800
tp3801
Rp3802
aa(lp3803
S'gasb_r-gap_a-gaas'
p3804
ag3
(g7
S'\xbb/x\x13\xd8\xae\x01@'
p3805
tp3806
Rp3807
aa(lp3808
S'gasb_r-gap_a-gap'
p3809
ag3
(g7
S'\xa37\x95\x03[\x16\x02@'
p3810
tp3811
Rp3812
aa(lp3813
S'gasb_r-gap_a-gasb'
p3814
ag3
(g7
S'\x1a\xef\x15\xf3KL\x01@'
p3815
tp3816
Rp3817
aa(lp3818
S'gasb_r-gap_a-inas'
p3819
ag3
(g7
S'\xa1\x8e#~4`\x01@'
p3820
tp3821
Rp3822
aa(lp3823
S'gasb_r-gap_a-inp'
p3824
ag3
(g7
S'\xf4-\xa1Q\xbc\xbb\x01@'
p3825
tp3826
Rp3827
aa(lp3828
S'gasb_r-gap_a-insb'
p3829
ag3
(g7
S'\xfc\xf4P\x1fnb\x01@'
p3830
tp3831
Rp3832
aa(lp3833
S'gasb_r-inas_a-alas'
p3834
ag3
(g7
S'q\x88\xb7\xc1(\x86\xfe?'
p3835
tp3836
Rp3837
aa(lp3838
S'gasb_r-inas_a-alp'
p3839
ag3
(g7
S'\x07\xab\xad\xc5W\xa7\xfe?'
p3840
tp3841
Rp3842
aa(lp3843
S'gasb_r-inas_a-alsb'
p3844
ag3
(g7
S'\x01h\xc3M\xe0+\xfc?'
p3845
tp3846
Rp3847
aa(lp3848
S'gasb_r-inas_a-gaas'
p3849
ag3
(g7
S',}m\xdd\x0cq\xfe?'
p3850
tp3851
Rp3852
aa(lp3853
S'gasb_r-inas_a-gap'
p3854
ag3
(g7
S'\xa0h\xd5\x82d\xe8\xff?'
p3855
tp3856
Rp3857
aa(lp3858
S'gasb_r-inas_a-gasb'
p3859
ag3
(g7
S'5AH _\xe0\xfc?'
p3860
tp3861
Rp3862
aa(lp3863
S'gasb_r-inas_a-inas'
p3864
ag3
(g7
S'[\xc1\xf7\xc4\xeb\xf0\xfc?'
p3865
tp3866
Rp3867
aa(lp3868
S'gasb_r-inas_a-inp'
p3869
ag3
(g7
S'8*\x94F\xd8=\xfe?'
p3870
tp3871
Rp3872
aa(lp3873
S'gasb_r-inas_a-insb'
p3874
ag3
(g7
S'\xf9\x1a\nAY\x08\xfc?'
p3875
tp3876
Rp3877
aa(lp3878
S'gasb_r-inp_a-alas'
p3879
ag3
(g7
S'B\xe7\x18}\xc1\x03\x04@'
p3880
tp3881
Rp3882
aa(lp3883
S'gasb_r-inp_a-alp'
p3884
ag3
(g7
S'\xedW\xa4\t\xe2\xc5\x03@'
p3885
tp3886
Rp3887
aa(lp3888
S'gasb_r-inp_a-alsb'
p3889
ag3
(g7
S'\xaalH\x97Q\xd2\x02@'
p3890
tp3891
Rp3892
aa(lp3893
S'gasb_r-inp_a-gaas'
p3894
ag3
(g7
S'G\x8c\xc2,gk\x03@'
p3895
tp3896
Rp3897
aa(lp3898
S'gasb_r-inp_a-gap'
p3899
ag3
(g7
S"^\x80$\x904'\x04@"
p3900
tp3901
Rp3902
aa(lp3903
S'gasb_r-inp_a-gasb'
p3904
ag3
(g7
S'9^ \xfcm\xe3\x02@'
p3905
tp3906
Rp3907
aa(lp3908
S'gasb_r-inp_a-inas'
p3909
ag3
(g7
S'[\xf3R^\n\x94\x02@'
p3910
tp3911
Rp3912
aa(lp3913
S'gasb_r-inp_a-inp'
p3914
ag3
(g7
S'\x9b2z~6\x99\x03@'
p3915
tp3916
Rp3917
aa(lp3918
S'gasb_r-inp_a-insb'
p3919
ag3
(g7
S'\x10XA\x17\xcc\xff\x01@'
p3920
tp3921
Rp3922
aa(lp3923
S'gasb_r-insb_a-alas'
p3924
ag3
(g7
S'\xf6b\x854\xd1\\\xe9?'
p3925
tp3926
Rp3927
aa(lp3928
S'gasb_r-insb_a-alp'
p3929
ag3
(g7
S'\x00\xe2\x02>\xa3\x12\xea?'
p3930
tp3931
Rp3932
aa(lp3933
S'gasb_r-insb_a-alsb'
p3934
ag3
(g7
S"\xf5\x1d\x1a'\x19\xab\xe7?"
p3935
tp3936
Rp3937
aa(lp3938
S'gasb_r-insb_a-gaas'
p3939
ag3
(g7
S'\xb5\x9a\x11\xe1Xk\xe9?'
p3940
tp3941
Rp3942
aa(lp3943
S'gasb_r-insb_a-gap'
p3944
ag3
(g7
S'\xf7\xed\x91\xa2\x99,\xea?'
p3945
tp3946
Rp3947
aa(lp3948
S'gasb_r-insb_a-gasb'
p3949
ag3
(g7
S"''\x0c2\x11\x03\xe8?"
p3950
tp3951
Rp3952
aa(lp3953
S'gasb_r-insb_a-inas'
p3954
ag3
(g7
S'\xdf\x06\x99S\xb8\xc9\xe7?'
p3955
tp3956
Rp3957
aa(lp3958
S'gasb_r-insb_a-inp'
p3959
ag3
(g7
S'e\xe3F\x9fn\xe9\xe8?'
p3960
tp3961
Rp3962
aa(lp3963
S'gasb_r-insb_a-insb'
p3964
ag3
(g7
S'02-\x01\x9cV\xe8?'
p3965
tp3966
Rp3967
aa(lp3968
S'ge_r-c_a-c'
p3969
ag3
(g7
S';\x9b\x8f\xc8\xc7o\x12@'
p3970
tp3971
Rp3972
aa(lp3973
S'ge_r-c_a-cge'
p3974
ag3
(g7
S'O\xfa\xbaw\xb86\x15@'
p3975
tp3976
Rp3977
aa(lp3978
S'ge_r-c_a-ge'
p3979
ag3
(g7
S'\xe6\x05\x10\xfc:z\x15@'
p3980
tp3981
Rp3982
aa(lp3983
S'ge_r-c_a-gesn'
p3984
ag3
(g7
S'\xcb?q\x16\xea\xc5\x15@'
p3985
tp3986
Rp3987
aa(lp3988
S'ge_r-c_a-si'
p3989
ag3
(g7
S'\x9fj\x94\xe1\xf4\xf9\x14@'
p3990
tp3991
Rp3992
aa(lp3993
S'ge_r-c_a-sic'
p3994
ag3
(g7
S'\xe7A\xde\xac\xb5\xae\x12@'
p3995
tp3996
Rp3997
aa(lp3998
S'ge_r-c_a-sige'
p3999
ag3
(g7
S':\xd89\xf8\x7f\xfb\x14@'
p4000
tp4001
Rp4002
aa(lp4003
S'ge_r-c_a-sn'
p4004
ag3
(g7
S'\xb8U3\x97\x01\x00 @'
p4005
tp4006
Rp4007
aa(lp4008
S'ge_r-c_a-snsi'
p4009
ag3
(g7
S'p\xad\x0c\xc8p\x01 @'
p4010
tp4011
Rp4012
aa(lp4013
S'ge_r-cge_a-c'
p4014
ag3
(g7
S'\xd7F\xa1=d\xc8\x0e@'
p4015
tp4016
Rp4017
aa(lp4018
S'ge_r-cge_a-cge'
p4019
ag3
(g7
S'\xa3`\xfe\xcf\xfd\n\t@'
p4020
tp4021
Rp4022
aa(lp4023
S'ge_r-cge_a-ge'
p4024
ag3
(g7
S'ZNP\x91O\xe8\x08@'
p4025
tp4026
Rp4027
aa(lp4028
S'ge_r-cge_a-gesn'
p4029
ag3
(g7
S'\xe8\xfe\xd7\x87b\x87\x08@'
p4030
tp4031
Rp4032
aa(lp4033
S'ge_r-cge_a-si'
p4034
ag3
(g7
S'e5_\x1e\xb78\t@'
p4035
tp4036
Rp4037
aa(lp4038
S'ge_r-cge_a-sic'
p4039
ag3
(g7
S'@!\x85\xedx\x8d\x0b@'
p4040
tp4041
Rp4042
aa(lp4043
S'ge_r-cge_a-sige'
p4044
ag3
(g7
S'!\x83\x14W\x82:\t@'
p4045
tp4046
Rp4047
aa(lp4048
S'ge_r-cge_a-sn'
p4049
ag3
(g7
S'\xb8U3\x97\x01\x00 @'
p4050
tp4051
Rp4052
aa(lp4053
S'ge_r-cge_a-snsi'
p4054
ag3
(g7
S'\xf2\xd4\xedB\xe9\xff\x1f@'
p4055
tp4056
Rp4057
aa(lp4058
S'ge_r-gesn_a-c'
p4059
ag3
(g7
S'v\x94G\xe3j<\xf9?'
p4060
tp4061
Rp4062
aa(lp4063
S'ge_r-gesn_a-cge'
p4064
ag3
(g7
S'U;\x08-\xed\xbb\xf2?'
p4065
tp4066
Rp4067
aa(lp4068
S'ge_r-gesn_a-ge'
p4069
ag3
(g7
S'\xf8\xb8,\xfe\x08\x00 @'
p4070
tp4071
Rp4072
aa(lp4073
S'ge_r-gesn_a-gesn'
p4074
ag3
(g7
S'hg\xf6\x99\xfb\xff\x1f@'
p4075
tp4076
Rp4077
aa(lp4078
S'ge_r-gesn_a-si'
p4079
ag3
(g7
S'{\xcd2\x08\xc8\xf7\xf2?'
p4080
tp4081
Rp4082
aa(lp4083
S'ge_r-gesn_a-sic'
p4084
ag3
(g7
S'\x14\x8e\xf0\xc4}\x92\xf5?'
p4085
tp4086
Rp4087
aa(lp4088
S'ge_r-gesn_a-sige'
p4089
ag3
(g7
S'cA8\xa8@\xf2\xf2?'
p4090
tp4091
Rp4092
aa(lp4093
S'ge_r-gesn_a-sn'
p4094
ag3
(g7
S'lK\x11\xedE\xd3\xf1?'
p4095
tp4096
Rp4097
aa(lp4098
S'ge_r-gesn_a-snsi'
p4099
ag3
(g7
S'V\x94z\x14\xe9\xff\x1f@'
p4100
tp4101
Rp4102
aa(lp4103
S'ge_r-si_a-c'
p4104
ag3
(g7
S'\xd5X-z\x05f\xd6?'
p4105
tp4106
Rp4107
aa(lp4108
S'ge_r-si_a-cge'
p4109
ag3
(g7
S'\xae\x8aP?\x84\xf0\xd1?'
p4110
tp4111
Rp4112
aa(lp4113
S'ge_r-si_a-ge'
p4114
ag3
(g7
S'Y\xd2\x99H\xbc\xd3\xd5?'
p4115
tp4116
Rp4117
aa(lp4118
S'ge_r-si_a-gesn'
p4119
ag3
(g7
S'hg\xf6\x99\xfb\xff\x1f@'
p4120
tp4121
Rp4122
aa(lp4123
S'ge_r-si_a-si'
p4124
ag3
(g7
S"r\xd8\xc5W\x86'\xce?"
p4125
tp4126
Rp4127
aa(lp4128
S'ge_r-si_a-sic'
p4129
ag3
(g7
S'\xea\x14\x1c\xf7\xe8X\xd5?'
p4130
tp4131
Rp4132
aa(lp4133
S'ge_r-si_a-sige'
p4134
ag3
(g7
S'\xd1\x8b\x8f\xcaC?\xd2?'
p4135
tp4136
Rp4137
aa(lp4138
S'ge_r-si_a-sn'
p4139
ag3
(g7
S'\xb8U3\x97\x01\x00 @'
p4140
tp4141
Rp4142
aa(lp4143
S'ge_r-si_a-snsi'
p4144
ag3
(g7
S'\x16\r\x07\x1b\xe9\xff\x1f@'
p4145
tp4146
Rp4147
aa(lp4148
S'ge_r-sic_a-c'
p4149
ag3
(g7
S'\xbe:l\xa9\xafW\x0e@'
p4150
tp4151
Rp4152
aa(lp4153
S'ge_r-sic_a-cge'
p4154
ag3
(g7
S'G\x90?)\xfc\x18\t@'
p4155
tp4156
Rp4157
aa(lp4158
S'ge_r-sic_a-ge'
p4159
ag3
(g7
S'(\xc4a\x1f{\xf3\x08@'
p4160
tp4161
Rp4162
aa(lp4163
S'ge_r-sic_a-gesn'
p4164
ag3
(g7
S'hg\xf6\x99\xfb\xff\x1f@'
p4165
tp4166
Rp4167
aa(lp4168
S'ge_r-sic_a-si'
p4169
ag3
(g7
S'\x86]\x07/\x15/\t@'
p4170
tp4171
Rp4172
aa(lp4173
S'ge_r-sic_a-sic'
p4174
ag3
(g7
S'9H\xb5l+y\x0b@'
p4175
tp4176
Rp4177
aa(lp4178
S'ge_r-sic_a-sige'
p4179
ag3
(g7
S'\x19\x054\xd271\t@'
p4180
tp4181
Rp4182
aa(lp4183
S'ge_r-sic_a-sn'
p4184
ag3
(g7
S'\xb8U3\x97\x01\x00 @'
p4185
tp4186
Rp4187
aa(lp4188
S'ge_r-sic_a-snsi'
p4189
ag3
(g7
S'\x00\x00\x00\x00\x00\x00\x00\x00'
p4190
tp4191
Rp4192
aa(lp4193
S'ge_r-sige_a-c'
p4194
ag3
(g7
S'7\x07+g/\x1f\xcf?'
p4195
tp4196
Rp4197
aa(lp4198
S'ge_r-sige_a-cge'
p4199
ag3
(g7
S'\xb2\r\xb2gK\xe9\xc1?'
p4200
tp4201
Rp4202
aa(lp4203
S'ge_r-sige_a-ge'
p4204
ag3
(g7
S'\x8f?\xecN[\xff\xc9?'
p4205
tp4206
Rp4207
aa(lp4208
S'ge_r-sige_a-gesn'
p4209
ag3
(g7
S':#\xd1\xfa\xca=\xc2?'
p4210
tp4211
Rp4212
aa(lp4213
S'ge_r-sige_a-si'
p4214
ag3
(g7
S'\xc9\xf5\xe9\x01\xb1:\xc2?'
p4215
tp4216
Rp4217
aa(lp4218
S'ge_r-sige_a-sic'
p4219
ag3
(g7
S'\xd2z5PSQ\xc8?'
p4220
tp4221
Rp4222
aa(lp4223
S'ge_r-sige_a-sige'
p4224
ag3
(g7
S'Z\x7f\x18\xf2vE\xc2?'
p4225
tp4226
Rp4227
aa(lp4228
S'ge_r-sige_a-sn'
p4229
ag3
(g7
S'\xb8U3\x97\x01\x00 @'
p4230
tp4231
Rp4232
aa(lp4233
S'ge_r-sige_a-snsi'
p4234
ag3
(g7
S'\xa7\xce;C\xe9\xff\x1f@'
p4235
tp4236
Rp4237
aa(lp4238
S'ge_r-sn_a-c'
p4239
ag3
(g7
S'\xf8m8\xd3\xe7J\x03@'
p4240
tp4241
Rp4242
aa(lp4243
S'ge_r-sn_a-cge'
p4244
ag3
(g7
S'\x91\x84A\x91\xf3\xff\x1f@'
p4245
tp4246
Rp4247
aa(lp4248
S'ge_r-sn_a-ge'
p4249
ag3
(g7
S'\xc4Y\xba\xdfr\x12\xfc?'
p4250
tp4251
Rp4252
aa(lp4253
S'ge_r-sn_a-gesn'
p4254
ag3
(g7
S'\xfb\xf5L\x0e\xder\xfd?'
p4255
tp4256
Rp4257
aa(lp4258
S'ge_r-sn_a-si'
p4259
ag3
(g7
S'+4\xc4\xce\xfd\xc1\xfb?'
p4260
tp4261
Rp4262
aa(lp4263
S'ge_r-sn_a-sic'
p4264
ag3
(g7
S'\xce\x9b1\x82\x0b\x00 @'
p4265
tp4266
Rp4267
aa(lp4268
S'ge_r-sn_a-sige'
p4269
ag3
(g7
S'[\xa3O)r\xbf\xfb?'
p4270
tp4271
Rp4272
aa(lp4273
S'ge_r-sn_a-sn'
p4274
ag3
(g7
S'\xb8U3\x97\x01\x00 @'
p4275
tp4276
Rp4277
aa(lp4278
S'ge_r-sn_a-snsi'
p4279
ag3
(g7
S'\x00\x00\x00\x00\x00\x00\x00\x00'
p4280
tp4281
Rp4282
aa(lp4283
S'ge_r-snsi_a-c'
p4284
ag3
(g7
S'`A\xe05\xf5\xff\x1f@'
p4285
tp4286
Rp4287
aa(lp4288
S'ge_r-snsi_a-cge'
p4289
ag3
(g7
S'\xab\x03\x13\x80\x84\xb5\xf2?'
p4290
tp4291
Rp4292
aa(lp4293
S'ge_r-snsi_a-ge'
p4294
ag3
(g7
S'\xf8\xb8,\xfe\x08\x00 @'
p4295
tp4296
Rp4297
aa(lp4298
S'ge_r-snsi_a-gesn'
p4299
ag3
(g7
S'hg\xf6\x99\xfb\xff\x1f@'
p4300
tp4301
Rp4302
aa(lp4303
S'ge_r-snsi_a-si'
p4304
ag3
(g7
S'r-w6\xed\xff\x1f@'
p4305
tp4306
Rp4307
aa(lp4308
S'ge_r-snsi_a-sic'
p4309
ag3
(g7
S'\xce\x9b1\x82\x0b\x00 @'
p4310
tp4311
Rp4312
aa(lp4313
S'ge_r-snsi_a-sige'
p4314
ag3
(g7
S'YQ\xbf\x13\xff\xff\x1f@'
p4315
tp4316
Rp4317
aa(lp4318
S'ge_r-snsi_a-sn'
p4319
ag3
(g7
S'\xcc\xd8\x8f\xf8\xaeI\xf2?'
p4320
tp4321
Rp4322
aa(lp4323
S'ge_r-snsi_a-snsi'
p4324
ag3
(g7
S'\x00\x00\x00\x00\x00\x00\x00\x00'
p4325
tp4326
Rp4327
aa(lp4328
S'gesn_r-c_a-c'
p4329
ag3
(g7
S'\xb6\xdaQz\rs\x16@'
p4330
tp4331
Rp4332
aa(lp4333
S'gesn_r-c_a-cge'
p4334
ag3
(g7
S'[\xa9\xf0\xc81[\x18@'
p4335
tp4336
Rp4337
aa(lp4338
S'gesn_r-c_a-ge'
p4339
ag3
(g7
S'\xca\x1f\x1c\x04\x98\x00 @'
p4340
tp4341
Rp4342
aa(lp4343
S'gesn_r-c_a-gesn'
p4344
ag3
(g7
S'2\xb0\x9c\xee\xec\x01 @'
p4345
tp4346
Rp4347
aa(lp4348
S'gesn_r-c_a-si'
p4349
ag3
(g7
S'E\xf2\xe1,\xfa\x10\x18@'
p4350
tp4351
Rp4352
aa(lp4353
S'gesn_r-c_a-sic'
p4354
ag3
(g7
S'\x9f\x06j\ry\xc9\x15@'
p4355
tp4356
Rp4357
aa(lp4358
S'gesn_r-c_a-sige'
p4359
ag3
(g7
S'\xc0N2\xef2\x12\x18@'
p4360
tp4361
Rp4362
aa(lp4363
S'gesn_r-c_a-sn'
p4364
ag3
(g7
S'>P\xcf\x95\xfa\xff\x1f@'
p4365
tp4366
Rp4367
aa(lp4368
S'gesn_r-c_a-snsi'
p4369
ag3
(g7
S'9\x1e\xde\xf9C\xf4\x18@'
p4370
tp4371
Rp4372
aa(lp4373
S'gesn_r-cge_a-c'
p4374
ag3
(g7
S'\xb8\xc3{\xa1[\xd6\x0e@'
p4375
tp4376
Rp4377
aa(lp4378
S'gesn_r-cge_a-cge'
p4379
ag3
(g7
S'\x8f\xf5;OR\x9e\x0c@'
p4380
tp4381
Rp4382
aa(lp4383
S'gesn_r-cge_a-ge'
p4384
ag3
(g7
S'\xde\x1a\xd5\xbf\x08\x00 @'
p4385
tp4386
Rp4387
aa(lp4388
S'gesn_r-cge_a-gesn'
p4389
ag3
(g7
S'M\x1et\x8d\xfa\xff\x1f@'
p4390
tp4391
Rp4392
aa(lp4393
S'gesn_r-cge_a-si'
p4394
ag3
(g7
S"\x16\x19\xd8'\xbcD\x0c@"
p4395
tp4396
Rp4397
aa(lp4398
S'gesn_r-cge_a-sic'
p4399
ag3
(g7
S'\xdf\xf9\xff\x0f\xa1B\x0b@'
p4400
tp4401
Rp4402
aa(lp4403
S'gesn_r-cge_a-sige'
p4404
ag3
(g7
S'\xaa\x0fx\x98\x8eF\x0c@'
p4405
tp4406
Rp4407
aa(lp4408
S'gesn_r-cge_a-sn'
p4409
ag3
(g7
S'>P\xcf\x95\xfa\xff\x1f@'
p4410
tp4411
Rp4412
aa(lp4413
S'gesn_r-cge_a-snsi'
p4414
ag3
(g7
S'\xddH(\x00\x1ex\r@'
p4415
tp4416
Rp4417
aa(lp4418
S'gesn_r-ge_a-c'
p4419
ag3
(g7
S'v\x94G\xe3j<\xf9?'
p4420
tp4421
Rp4422
aa(lp4423
S'gesn_r-ge_a-cge'
p4424
ag3
(g7
S'U;\x08-\xed\xbb\xf2?'
p4425
tp4426
Rp4427
aa(lp4428
S'gesn_r-ge_a-ge'
p4429
ag3
(g7
S'\xf8\xb8,\xfe\x08\x00 @'
p4430
tp4431
Rp4432
aa(lp4433
S'gesn_r-ge_a-gesn'
p4434
ag3
(g7
S'hg\xf6\x99\xfb\xff\x1f@'
p4435
tp4436
Rp4437
aa(lp4438
S'gesn_r-ge_a-si'
p4439
ag3
(g7
S'{\xcd2\x08\xc8\xf7\xf2?'
p4440
tp4441
Rp4442
aa(lp4443
S'gesn_r-ge_a-sic'
p4444
ag3
(g7
S'\x14\x8e\xf0\xc4}\x92\xf5?'
p4445
tp4446
Rp4447
aa(lp4448
S'gesn_r-ge_a-sige'
p4449
ag3
(g7
S'cA8\xa8@\xf2\xf2?'
p4450
tp4451
Rp4452
aa(lp4453
S'gesn_r-ge_a-sn'
p4454
ag3
(g7
S'lK\x11\xedE\xd3\xf1?'
p4455
tp4456
Rp4457
aa(lp4458
S'gesn_r-ge_a-snsi'
p4459
ag3
(g7
S'V\x94z\x14\xe9\xff\x1f@'
p4460
tp4461
Rp4462
aa(lp4463
S'gesn_r-si_a-c'
p4464
ag3
(g7
S'\x7f]7\xae\xe7\xdb\xfa?'
p4465
tp4466
Rp4467
aa(lp4468
S'gesn_r-si_a-cge'
p4469
ag3
(g7
S'\xf1\x12\xdb\x19\x91\x1c\xf4?'
p4470
tp4471
Rp4472
aa(lp4473
S'gesn_r-si_a-ge'
p4474
ag3
(g7
S'4\x11\xfc\xc5\x08\x00 @'
p4475
tp4476
Rp4477
aa(lp4478
S'gesn_r-si_a-gesn'
p4479
ag3
(g7
S'\x00\x00\x00\x00\x00\x00\x00\x00'
p4480
tp4481
Rp4482
aa(lp4483
S'gesn_r-si_a-si'
p4484
ag3
(g7
S'N\xf8\xe4\xdd\xfb\xe1\xf3?'
p4485
tp4486
Rp4487
aa(lp4488
S'gesn_r-si_a-sic'
p4489
ag3
(g7
S'}\xbb\xa7\xa5\xe7\xdd\xf7?'
p4490
tp4491
Rp4492
aa(lp4493
S'gesn_r-si_a-sige'
p4494
ag3
(g7
S'>\xe0\xb6\x84`t\xf4?'
p4495
tp4496
Rp4497
aa(lp4498
S'gesn_r-si_a-sn'
p4499
ag3
(g7
S'>P\xcf\x95\xfa\xff\x1f@'
p4500
tp4501
Rp4502
aa(lp4503
S'gesn_r-si_a-snsi'
p4504
ag3
(g7
S'\xb3\xddK{\xf7]\xf3?'
p4505
tp4506
Rp4507
aa(lp4508
S'gesn_r-sic_a-c'
p4509
ag3
(g7
S"\xb4\x93'y\x87\xdf\x14@"
p4510
tp4511
Rp4512
aa(lp4513
S'gesn_r-sic_a-cge'
p4514
ag3
(g7
S'Bg\xe6?\x8e\xb8\x10@'
p4515
tp4516
Rp4517
aa(lp4518
S'gesn_r-sic_a-ge'
p4519
ag3
(g7
S'\xa9Jf\xa1\x08\x00 @'
p4520
tp4521
Rp4522
aa(lp4523
S'gesn_r-sic_a-gesn'
p4524
ag3
(g7
S'\x00\x00\x00\x00\x00\x00\x00\x00'
p4525
tp4526
Rp4527
aa(lp4528
S'gesn_r-sic_a-si'
p4529
ag3
(g7
S'd\xb0j\xdc\x03\xd3\x10@'
p4530
tp4531
Rp4532
aa(lp4533
S'gesn_r-sic_a-sic'
p4534
ag3
(g7
S'P\x02Ku\x94\xa2\x12@'
p4535
tp4536
Rp4537
aa(lp4538
S'gesn_r-sic_a-sige'
p4539
ag3
(g7
S'\x85\xb7K\x0f/\xd3\x10@'
p4540
tp4541
Rp4542
aa(lp4543
S'gesn_r-sic_a-sn'
p4544
ag3
(g7
S'>P\xcf\x95\xfa\xff\x1f@'
p4545
tp4546
Rp4547
aa(lp4548
S'gesn_r-sic_a-snsi'
p4549
ag3
(g7
S'V\x94z\x14\xe9\xff\x1f@'
p4550
tp4551
Rp4552
aa(lp4553
S'gesn_r-sige_a-c'
p4554
ag3
(g7
S'\x96\xb8>\xbdk\x1c\xfb?'
p4555
tp4556
Rp4557
aa(lp4558
S'gesn_r-sige_a-cge'
p4559
ag3
(g7
S'\x1c\x17\xe9}Ac\xf3?'
p4560
tp4561
Rp4562
aa(lp4563
S'gesn_r-sige_a-ge'
p4564
ag3
(g7
S'U\x9f\x7f\x0e\t\x00 @'
p4565
tp4566
Rp4567
aa(lp4568
S'gesn_r-sige_a-gesn'
p4569
ag3
(g7
S'\x88\r\xe8\x84\xfa\xff\x1f@'
p4570
tp4571
Rp4572
aa(lp4573
S'gesn_r-sige_a-si'
p4574
ag3
(g7
S"'\x03\x03\xa3>\xbb\xf3?"
p4575
tp4576
Rp4577
aa(lp4578
S'gesn_r-sige_a-sic'
p4579
ag3
(g7
S'\xfa\xcc(\xcbG=\xf7?'
p4580
tp4581
Rp4582
aa(lp4583
S'gesn_r-sige_a-sige'
p4584
ag3
(g7
S'^\xce\xee\x89\xc8\xb5\xf3?'
p4585
tp4586
Rp4587
aa(lp4588
S'gesn_r-sige_a-sn'
p4589
ag3
(g7
S'>P\xcf\x95\xfa\xff\x1f@'
p4590
tp4591
Rp4592
aa(lp4593
S'gesn_r-sige_a-snsi'
p4594
ag3
(g7
S'\x021;\xec\xcf\xcb\xf2?'
p4595
tp4596
Rp4597
aa(lp4598
S'gesn_r-sn_a-c'
p4599
ag3
(g7
S'\x8a0\xb4\xd2#r\xfc?'
p4600
tp4601
Rp4602
aa(lp4603
S'gesn_r-sn_a-cge'
p4604
ag3
(g7
S'[vz\x9d\xf2\xff\x1f@'
p4605
tp4606
Rp4607
aa(lp4608
S'gesn_r-sn_a-ge'
p4609
ag3
(g7
S'`V\xef\x99\x08\x00 @'
p4610
tp4611
Rp4612
aa(lp4613
S'gesn_r-sn_a-gesn'
p4614
ag3
(g7
S'/\x1b\xdd\xf0\xf9\xff\x1f@'
p4615
tp4616
Rp4617
aa(lp4618
S'gesn_r-sn_a-si'
p4619
ag3
(g7
S'\x94\xc3\xff\x02\x12\xd0\xf3?'
p4620
tp4621
Rp4622
aa(lp4623
S'gesn_r-sn_a-sic'
p4624
ag3
(g7
S'\xf8\x9f\x17b\x0b\x00 @'
p4625
tp4626
Rp4627
aa(lp4628
S'gesn_r-sn_a-sige'
p4629
ag3
(g7
S'0\x9f;\xb6\xd0\xcb\xf3?'
p4630
tp4631
Rp4632
aa(lp4633
S'gesn_r-sn_a-sn'
p4634
ag3
(g7
S'>P\xcf\x95\xfa\xff\x1f@'
p4635
tp4636
Rp4637
aa(lp4638
S'gesn_r-sn_a-snsi'
p4639
ag3
(g7
S'V\x94z\x14\xe9\xff\x1f@'
p4640
tp4641
Rp4642
aa(lp4643
S'gesn_r-snsi_a-c'
p4644
ag3
(g7
S'\xda\xc1<\xa3\xf5\xff\x1f@'
p4645
tp4646
Rp4647
aa(lp4648
S'gesn_r-snsi_a-cge'
p4649
ag3
(g7
S'V\xd2\xbb\xc5\xc9\xe3\xc1?'
p4650
tp4651
Rp4652
aa(lp4653
S'gesn_r-snsi_a-ge'
p4654
ag3
(g7
S'\x00\x00\x00\x00\x00\x00\x00\x00'
p4655
tp4656
Rp4657
aa(lp4658
S'gesn_r-snsi_a-gesn'
p4659
ag3
(g7
S'\x00\x00\x00\x00\x00\x00\x00\x00'
p4660
tp4661
Rp4662
aa(lp4663
S'gesn_r-snsi_a-si'
p4664
ag3
(g7
S'*\xd0\xa8\x01\xed\xff\x1f@'
p4665
tp4666
Rp4667
aa(lp4668
S'gesn_r-snsi_a-sic'
p4669
ag3
(g7
S'\xf8\x9f\x17b\x0b\x00 @'
p4670
tp4671
Rp4672
aa(lp4673
S'gesn_r-snsi_a-sige'
p4674
ag3
(g7
S'B\x07\x19\x00\x00\x00 @'
p4675
tp4676
Rp4677
aa(lp4678
S'gesn_r-snsi_a-sn'
p4679
ag3
(g7
S'\xdf\x94\x85\xf5\xf2H\xc1?'
p4680
tp4681
Rp4682
aa(lp4683
S'gesn_r-snsi_a-snsi'
p4684
ag3
(g7
S'V\x94z\x14\xe9\xff\x1f@'
p4685
tp4686
Rp4687
aa(lp4688
S'hgs_r-cds_a-cds'
p4689
ag3
(g7
S'c\xe5\xa2i}}\n@'
p4690
tp4691
Rp4692
aa(lp4693
S'hgs_r-cds_a-cdse'
p4694
ag3
(g7
S'\x1e\xeahB\x8e\x11\x0b@'
p4695
tp4696
Rp4697
aa(lp4698
S'hgs_r-cds_a-cdte'
p4699
ag3
(g7
S'Q%\x15\x1f8\xb6\n@'
p4700
tp4701
Rp4702
aa(lp4703
S'hgs_r-cds_a-hgs'
p4704
ag3
(g7
S'r\x1av\xa1\xd9\x93\n@'
p4705
tp4706
Rp4707
aa(lp4708
S'hgs_r-cds_a-hgse'
p4709
ag3
(g7
S'\xd2[n\x1f0\x12\x0b@'
p4710
tp4711
Rp4712
aa(lp4713
S'hgs_r-cds_a-hgte'
p4714
ag3
(g7
S'\x8b\xfe\x8e\x07G\xbf\n@'
p4715
tp4716
Rp4717
aa(lp4718
S'hgs_r-cds_a-zns'
p4719
ag3
(g7
S'\x88\xe2\xbb\xd7\xe5\x08\n@'
p4720
tp4721
Rp4722
aa(lp4723
S'hgs_r-cds_a-znse'
p4724
ag3
(g7
S'\x85.\xd0y^b\n@'
p4725
tp4726
Rp4727
aa(lp4728
S'hgs_r-cds_a-znte'
p4729
ag3
(g7
S'd\x9dU\x11\x0f\xe1\n@'
p4730
tp4731
Rp4732
aa(lp4733
S'hgs_r-cdse_a-cds'
p4734
ag3
(g7
S'\xcb\xb3\xc4\x99\x9f\x82\x0e@'
p4735
tp4736
Rp4737
aa(lp4738
S'hgs_r-cdse_a-cdse'
p4739
ag3
(g7
S"'\xb8\xc92\x7fv\x0f@"
p4740
tp4741
Rp4742
aa(lp4743
S'hgs_r-cdse_a-cdte'
p4744
ag3
(g7
S'T\xf6tG\xe0g\x10@'
p4745
tp4746
Rp4747
aa(lp4748
S'hgs_r-cdse_a-hgs'
p4749
ag3
(g7
S'\x83\x16<g\x97\x9d\x0e@'
p4750
tp4751
Rp4752
aa(lp4753
S'hgs_r-cdse_a-hgse'
p4754
ag3
(g7
S'd |\xecIz\x0f@'
p4755
tp4756
Rp4757
aa(lp4758
S'hgs_r-cdse_a-hgte'
p4759
ag3
(g7
S'\nU\xff\xa8\x10T\x10@'
p4760
tp4761
Rp4762
aa(lp4763
S'hgs_r-cdse_a-zns'
p4764
ag3
(g7
S'\x08d\xe0s\xb2:\r@'
p4765
tp4766
Rp4767
aa(lp4768
S'hgs_r-cdse_a-znse'
p4769
ag3
(g7
S'D\xa8.k\x1f\x06\x0e@'
p4770
tp4771
Rp4772
aa(lp4773
S'hgs_r-cdse_a-znte'
p4774
ag3
(g7
S'8\x9d\x90\xfc\xb5\x92\x0f@'
p4775
tp4776
Rp4777
aa(lp4778
S'hgs_r-cdte_a-cds'
p4779
ag3
(g7
S'\x96b\xea\x98,\xe6\x14@'
p4780
tp4781
Rp4782
aa(lp4783
S'hgs_r-cdte_a-cdse'
p4784
ag3
(g7
S'\xb3\xc6*\xb6\xcb~\x15@'
p4785
tp4786
Rp4787
aa(lp4788
S'hgs_r-cdte_a-cdte'
p4789
ag3
(g7
S'\xc3\x15\xd7+\xe2\x96\x16@'
p4790
tp4791
Rp4792
aa(lp4793
S'hgs_r-cdte_a-hgs'
p4794
ag3
(g7
S'\xfbH\x81\x00\xf6\xf0\x14@'
p4795
tp4796
Rp4797
aa(lp4798
S'hgs_r-cdte_a-hgse'
p4799
ag3
(g7
S'\xfd\x15\xb6Q<\x7f\x15@'
p4800
tp4801
Rp4802
aa(lp4803
S'hgs_r-cdte_a-hgte'
p4804
ag3
(g7
S'\xe3\xa4a\xe9\xc5\x87\x16@'
p4805
tp4806
Rp4807
aa(lp4808
S'hgs_r-cdte_a-zns'
p4809
ag3
(g7
S'J\x11\x1cQ\x01\xe5\x13@'
p4810
tp4811
Rp4812
aa(lp4813
S'hgs_r-cdte_a-znse'
p4814
ag3
(g7
S'\xe2|\x1a\xc76\x81\x14@'
p4815
tp4816
Rp4817
aa(lp4818
S'hgs_r-cdte_a-znte'
p4819
ag3
(g7
S'\xb3\xea\x9b\x0b\xc6\x8c\x15@'
p4820
tp4821
Rp4822
aa(lp4823
S'hgs_r-hgse_a-cds'
p4824
ag3
(g7
S'\xfa\xfd\xef\x10g\xdb\xf2?'
p4825
tp4826
Rp4827
aa(lp4828
S'hgs_r-hgse_a-cdse'
p4829
ag3
(g7
S'\x99#F\xbc{\x95\xf2?'
p4830
tp4831
Rp4832
aa(lp4833
S'hgs_r-hgse_a-cdte'
p4834
ag3
(g7
S'\x04\xbbx0!k\xf3?'
p4835
tp4836
Rp4837
aa(lp4838
S'hgs_r-hgse_a-hgs'
p4839
ag3
(g7
S':\xd2Y\xbe\xde\xd9\xf2?'
p4840
tp4841
Rp4842
aa(lp4843
S'hgs_r-hgse_a-hgse'
p4844
ag3
(g7
S'T\x04I\xa4\xd6\x9a\xf2?'
p4845
tp4846
Rp4847
aa(lp4848
S'hgs_r-hgse_a-hgte'
p4849
ag3
(g7
S'\xdb\xbc\xbfl\xc0\xd9\xf3?'
p4850
tp4851
Rp4852
aa(lp4853
S'hgs_r-hgse_a-zns'
p4854
ag3
(g7
S'\xf0p\xd7[\x95\x02\xf3?'
p4855
tp4856
Rp4857
aa(lp4858
S'hgs_r-hgse_a-znse'
p4859
ag3
(g7
S'Ji\xa0\x13\x87\t\xf3?'
p4860
tp4861
Rp4862
aa(lp4863
S'hgs_r-hgse_a-znte'
p4864
ag3
(g7
S'\xad\xc2S\xe3$\xb3\xf2?'
p4865
tp4866
Rp4867
aa(lp4868
S'hgs_r-hgte_a-cds'
p4869
ag3
(g7
S'S)J\xcf-\x90\n@'
p4870
tp4871
Rp4872
aa(lp4873
S'hgs_r-hgte_a-cdse'
p4874
ag3
(g7
S'\xf0\xfe\xf9<SL\n@'
p4875
tp4876
Rp4877
aa(lp4878
S'hgs_r-hgte_a-cdte'
p4879
ag3
(g7
S'\x9dO\xcc\xce\xcf\xae\n@'
p4880
tp4881
Rp4882
aa(lp4883
S'hgs_r-hgte_a-hgs'
p4884
ag3
(g7
S'\xe3.\xd3P%}\n@'
p4885
tp4886
Rp4887
aa(lp4888
S'hgs_r-hgte_a-hgse'
p4889
ag3
(g7
S'\xa7O\x89\x0c\xa6V\n@'
p4890
tp4891
Rp4892
aa(lp4893
S'hgs_r-hgte_a-hgte'
p4894
ag3
(g7
S'\xb0y\xaf\x96\x8c\xba\n@'
p4895
tp4896
Rp4897
aa(lp4898
S'hgs_r-hgte_a-zns'
p4899
ag3
(g7
S'2D\x97\xe3w\xb6\n@'
p4900
tp4901
Rp4902
aa(lp4903
S'hgs_r-hgte_a-znse'
p4904
ag3
(g7
S'{[\x04W\xf9\xa6\n@'
p4905
tp4906
Rp4907
aa(lp4908
S'hgs_r-hgte_a-znte'
p4909
ag3
(g7
S'\xe6\xf2v\x91\xbaH\n@'
p4910
tp4911
Rp4912
aa(lp4913
S'hgs_r-zns_a-cds'
p4914
ag3
(g7
S'-\xee0;\xbbT"@'
p4915
tp4916
Rp4917
aa(lp4918
S'hgs_r-zns_a-cdse'
p4919
ag3
(g7
S'\xd4\xc9\x9c\x05WG"@'
p4920
tp4921
Rp4922
aa(lp4923
S'hgs_r-zns_a-cdte'
p4924
ag3
(g7
S'y\xa9\t\x1f\x88G"@'
p4925
tp4926
Rp4927
aa(lp4928
S'hgs_r-zns_a-hgs'
p4929
ag3
(g7
S'\xe6\x99\x8e\x95eI"@'
p4930
tp4931
Rp4932
aa(lp4933
S'hgs_r-zns_a-hgse'
p4934
ag3
(g7
S'\xc9X\xc6\xeb\x90@"@'
p4935
tp4936
Rp4937
aa(lp4938
S'hgs_r-zns_a-hgte'
p4939
ag3
(g7
S'\x1e+6\x03\x0fH"@'
p4940
tp4941
Rp4942
aa(lp4943
S'hgs_r-zns_a-zns'
p4944
ag3
(g7
S'\x8d\x8e\x9e\x11\xb0="@'
p4945
tp4946
Rp4947
aa(lp4948
S'hgs_r-zns_a-znse'
p4949
ag3
(g7
S'\x88+T\xf6)B"@'
p4950
tp4951
Rp4952
aa(lp4953
S'hgs_r-zns_a-znte'
p4954
ag3
(g7
S'\x00\xc2?\xfd\xbbU"@'
p4955
tp4956
Rp4957
aa(lp4958
S'hgs_r-znse_a-cds'
p4959
ag3
(g7
S'\xd2\x7f\x82\x84\xa2\xbd"@'
p4960
tp4961
Rp4962
aa(lp4963
S'hgs_r-znse_a-cdse'
p4964
ag3
(g7
S'\x1c\xe0\xef\xc0\xe4\xfb"@'
p4965
tp4966
Rp4967
aa(lp4968
S'hgs_r-znse_a-cdte'
p4969
ag3
(g7
S'}9\x9d2CJ#@'
p4970
tp4971
Rp4972
aa(lp4973
S'hgs_r-znse_a-hgs'
p4974
ag3
(g7
S'\xb8\x8b\x7fHM\xc1"@'
p4975
tp4976
Rp4977
aa(lp4978
S'hgs_r-znse_a-hgse'
p4979
ag3
(g7
S'\xfc\n\xb9\xf2U\xf6"@'
p4980
tp4981
Rp4982
aa(lp4983
S'hgs_r-znse_a-hgte'
p4984
ag3
(g7
S'\xbeM\x0f\x12\x86B#@'
p4985
tp4986
Rp4987
aa(lp4988
S'hgs_r-znse_a-zns'
p4989
ag3
(g7
S'":\xb2\xe0\x9em"@'
p4990
tp4991
Rp4992
aa(lp4993
S'hgs_r-znse_a-znse'
p4994
ag3
(g7
S'\xd1\x087\xb6\xa9\x9f"@'
p4995
tp4996
Rp4997
aa(lp4998
S'hgs_r-znse_a-znte'
p4999
ag3
(g7
S'\xb3~\xa0\x02\xa6\x00#@'
p5000
tp5001
Rp5002
aa(lp5003
S'hgs_r-znte_a-cds'
p5004
ag3
(g7
S'\x9a\rr\x85/\xd8$@'
p5005
tp5006
Rp5007
aa(lp5008
S'hgs_r-znte_a-cdse'
p5009
ag3
(g7
S'p\x16OBLO%@'
p5010
tp5011
Rp5012
aa(lp5013
S'hgs_r-znte_a-cdte'
p5014
ag3
(g7
S'4{\xd6+6\xf0%@'
p5015
tp5016
Rp5017
aa(lp5018
S'hgs_r-znte_a-hgs'
p5019
ag3
(g7
S'Q\x1a\xdas\t\xda$@'
p5020
tp5021
Rp5022
aa(lp5023
S'hgs_r-znte_a-hgse'
p5024
ag3
(g7
S'\x89:\x86\x12\xdfM%@'
p5025
tp5026
Rp5027
aa(lp5028
S'hgs_r-znte_a-hgte'
p5029
ag3
(g7
S'\xa3|\xb8\xcfn\xf0%@'
p5030
tp5031
Rp5032
aa(lp5033
S'hgs_r-znte_a-zns'
p5034
ag3
(g7
S'\xe8]\x83\xe1\x8e!$@'
p5035
tp5036
Rp5037
aa(lp5038
S'hgs_r-znte_a-znse'
p5039
ag3
(g7
S'3B\xb0y\xff\x92$@'
p5040
tp5041
Rp5042
aa(lp5043
S'hgs_r-znte_a-znte'
p5044
ag3
(g7
S'\xf5\xb76:\xcbM%@'
p5045
tp5046
Rp5047
aa(lp5048
S'hgse_r-cds_a-cds'
p5049
ag3
(g7
S'r\x16\xbfe\xee\x91\x11@'
p5050
tp5051
Rp5052
aa(lp5053
S'hgse_r-cds_a-cdse'
p5054
ag3
(g7
S'\xb4\x90_v\x8d\xa5\x11@'
p5055
tp5056
Rp5057
aa(lp5058
S'hgse_r-cds_a-cdte'
p5059
ag3
(g7
S'Ty\xb2\x06\xacj\x11@'
p5060
tp5061
Rp5062
aa(lp5063
S'hgse_r-cds_a-hgs'
p5064
ag3
(g7
S'\x8al\x07\xab`\x9e\x11@'
p5065
tp5066
Rp5067
aa(lp5068
S'hgse_r-cds_a-hgse'
p5069
ag3
(g7
S'q.}\xb6Z\xa0\x11@'
p5070
tp5071
Rp5072
aa(lp5073
S'hgse_r-cds_a-hgte'
p5074
ag3
(g7
S'\xa6k\xbc\x155\x99\x11@'
p5075
tp5076
Rp5077
aa(lp5078
S'hgse_r-cds_a-zns'
p5079
ag3
(g7
S'\x86\xdbH\xa0\x1d\x91\x11@'
p5080
tp5081
Rp5082
aa(lp5083
S'hgse_r-cds_a-znse'
p5084
ag3
(g7
S'J\xb1\xf0\xc8\xfb\xa8\x11@'
p5085
tp5086
Rp5087
aa(lp5088
S'hgse_r-cds_a-znte'
p5089
ag3
(g7
S'\xe7\x9d\xb5\x15\xdf\xa1\x11@'
p5090
tp5091
Rp5092
aa(lp5093
S'hgse_r-cdse_a-cds'
p5094
ag3
(g7
S'!H\xe6\xc7\xe6A\n@'
p5095
tp5096
Rp5097
aa(lp5098
S'hgse_r-cdse_a-cdse'
p5099
ag3
(g7
S'\xe9$(?\xd6\x94\n@'
p5100
tp5101
Rp5102
aa(lp5103
S'hgse_r-cdse_a-cdte'
p5104
ag3
(g7
S'V\xcbkuu\x0c\x0b@'
p5105
tp5106
Rp5107
aa(lp5108
S'hgse_r-cdse_a-hgs'
p5109
ag3
(g7
S'\x04Y\x1b\xac%H\n@'
p5110
tp5111
Rp5112
aa(lp5113
S'hgse_r-cdse_a-hgse'
p5114
ag3
(g7
S'I#\xe8\x13\xbb\x95\n@'
p5115
tp5116
Rp5117
aa(lp5118
S'hgse_r-cdse_a-hgte'
p5119
ag3
(g7
S'\x10\x00\x9c\xe82|\x0b@'
p5120
tp5121
Rp5122
aa(lp5123
S'hgse_r-cdse_a-zns'
p5124
ag3
(g7
S'-\xd3M\x9bA\xce\t@'
p5125
tp5126
Rp5127
aa(lp5128
S'hgse_r-cdse_a-znse'
p5129
ag3
(g7
S'\xda\xf4\xf4\x08\xf5Q\n@'
p5130
tp5131
Rp5132
aa(lp5133
S'hgse_r-cdse_a-znte'
p5134
ag3
(g7
S'\x1c\xf6\xca\xfd\xc0\xe7\n@'
p5135
tp5136
Rp5137
aa(lp5138
S'hgse_r-cdte_a-cds'
p5139
ag3
(g7
S'\xe4#\xb0\x9bhi\x11@'
p5140
tp5141
Rp5142
aa(lp5143
S'hgse_r-cdte_a-cdse'
p5144
ag3
(g7
S'\x15HK\xbb\xf2\xe4\x11@'
p5145
tp5146
Rp5147
aa(lp5148
S'hgse_r-cdte_a-cdte'
p5149
ag3
(g7
S'\x18mD\xcd\xaa\xbe\x12@'
p5150
tp5151
Rp5152
aa(lp5153
S'hgse_r-cdte_a-hgs'
p5154
ag3
(g7
S'\xecK\x1a]&n\x11@'
p5155
tp5156
Rp5157
aa(lp5158
S'hgse_r-cdte_a-hgse'
p5159
ag3
(g7
S'\x93\x81\x17\x87\xd1\xe6\x11@'
p5160
tp5161
Rp5162
aa(lp5163
S'hgse_r-cdte_a-hgte'
p5164
ag3
(g7
S'\xf2N\xcb\xc6\x7f\xc4\x12@'
p5165
tp5166
Rp5167
aa(lp5168
S'hgse_r-cdte_a-zns'
p5169
ag3
(g7
S'\x07\xe4\xf1\x1cw\x9e\x10@'
p5170
tp5171
Rp5172
aa(lp5173
S'hgse_r-cdte_a-znse'
p5174
ag3
(g7
S'\x11j\xaax\x7f\x11\x11@'
p5175
tp5176
Rp5177
aa(lp5178
S'hgse_r-cdte_a-znte'
p5179
ag3
(g7
S'e\xbe\xdd\x94\xae\xf9\x11@'
p5180
tp5181
Rp5182
aa(lp5183
S'hgse_r-hgs_a-cds'
p5184
ag3
(g7
S'\xfa\xfd\xef\x10g\xdb\xf2?'
p5185
tp5186
Rp5187
aa(lp5188
S'hgse_r-hgs_a-cdse'
p5189
ag3
(g7
S'\x99#F\xbc{\x95\xf2?'
p5190
tp5191
Rp5192
aa(lp5193
S'hgse_r-hgs_a-cdte'
p5194
ag3
(g7
S'\x04\xbbx0!k\xf3?'
p5195
tp5196
Rp5197
aa(lp5198
S'hgse_r-hgs_a-hgs'
p5199
ag3
(g7
S':\xd2Y\xbe\xde\xd9\xf2?'
p5200
tp5201
Rp5202
aa(lp5203
S'hgse_r-hgs_a-hgse'
p5204
ag3
(g7
S'T\x04I\xa4\xd6\x9a\xf2?'
p5205
tp5206
Rp5207
aa(lp5208
S'hgse_r-hgs_a-hgte'
p5209
ag3
(g7
S'\xdb\xbc\xbfl\xc0\xd9\xf3?'
p5210
tp5211
Rp5212
aa(lp5213
S'hgse_r-hgs_a-zns'
p5214
ag3
(g7
S'\xf0p\xd7[\x95\x02\xf3?'
p5215
tp5216
Rp5217
aa(lp5218
S'hgse_r-hgs_a-znse'
p5219
ag3
(g7
S'Ji\xa0\x13\x87\t\xf3?'
p5220
tp5221
Rp5222
aa(lp5223
S'hgse_r-hgs_a-znte'
p5224
ag3
(g7
S'\xad\xc2S\xe3$\xb3\xf2?'
p5225
tp5226
Rp5227
aa(lp5228
S'hgse_r-hgte_a-cds'
p5229
ag3
(g7
S'wK\xe1X\xecr\x01@'
p5230
tp5231
Rp5232
aa(lp5233
S'hgse_r-hgte_a-cdse'
p5234
ag3
(g7
S'\xdf\x87\xd5$MN\x01@'
p5235
tp5236
Rp5237
aa(lp5238
S'hgse_r-hgte_a-cdte'
p5239
ag3
(g7
S'\xd3w5k\x173\x01@'
p5240
tp5241
Rp5242
aa(lp5243
S'hgse_r-hgte_a-hgs'
p5244
ag3
(g7
S'|\xd0\x8b\xbf\x13Z\x01@'
p5245
tp5246
Rp5247
aa(lp5248
S'hgse_r-hgte_a-hgse'
p5249
ag3
(g7
S'<\xd8\xbc<\xe5W\x01@'
p5250
tp5251
Rp5252
aa(lp5253
S'hgse_r-hgte_a-hgte'
p5254
ag3
(g7
S'\xf5/\xe3\xcc\xfe\xf4\x00@'
p5255
tp5256
Rp5257
aa(lp5258
S'hgse_r-hgte_a-zns'
p5259
ag3
(g7
S'\x06\xa3\n\xeb\x93\x7f\x01@'
p5260
tp5261
Rp5262
aa(lp5263
S'hgse_r-hgte_a-znse'
p5264
ag3
(g7
S'y\x18M\x07\x88d\x01@'
p5265
tp5266
Rp5267
aa(lp5268
S'hgse_r-hgte_a-znte'
p5269
ag3
(g7
S'\x7f\x88J\x9bK+\x01@'
p5270
tp5271
Rp5272
aa(lp5273
S'hgse_r-zns_a-cds'
p5274
ag3
(g7
S'Rh1\xfc\xf2\x87$@'
p5275
tp5276
Rp5277
aa(lp5278
S'hgse_r-zns_a-cdse'
p5279
ag3
(g7
S'\xd9\rzN\xc0\x87$@'
p5280
tp5281
Rp5282
aa(lp5283
S'hgse_r-zns_a-cdte'
p5284
ag3
(g7
S'\x82(\x13c\x8d\x91$@'
p5285
tp5286
Rp5287
aa(lp5288
S'hgse_r-zns_a-hgs'
p5289
ag3
(g7
S'\xb0D\xbf\xe5\x03\x86$@'
p5290
tp5291
Rp5292
aa(lp5293
S'hgse_r-zns_a-hgse'
p5294
ag3
(g7
S'\xfdJ8\xea\x89\x83$@'
p5295
tp5296
Rp5297
aa(lp5298
S'hgse_r-zns_a-hgte'
p5299
ag3
(g7
S'\x83\xe0OM\xbd\x9d$@'
p5300
tp5301
Rp5302
aa(lp5303
S'hgse_r-zns_a-zns'
p5304
ag3
(g7
S'z\xa2\xaa\xd9\xe9X$@'
p5305
tp5306
Rp5307
aa(lp5308
S'hgse_r-zns_a-znse'
p5309
ag3
(g7
S'n$\x9b\xb5\xd1v$@'
p5310
tp5311
Rp5312
aa(lp5313
S'hgse_r-zns_a-znte'
p5314
ag3
(g7
S'\xfe\x95#@\x90\x9e$@'
p5315
tp5316
Rp5317
aa(lp5318
S'hgse_r-znse_a-cds'
p5319
ag3
(g7
S't=\x03\n2A"@'
p5320
tp5321
Rp5322
aa(lp5323
S'hgse_r-znse_a-cdse'
p5324
ag3
(g7
S'u}\x17\x9cMD"@'
p5325
tp5326
Rp5327
aa(lp5328
S'hgse_r-znse_a-cdte'
p5329
ag3
(g7
S'\x81\x81\xdb\x00\xfaF"@'
p5330
tp5331
Rp5332
aa(lp5333
S'hgse_r-znse_a-hgs'
p5334
ag3
(g7
S'[\xf7\xe9X\xdc>"@'
p5335
tp5336
Rp5337
aa(lp5338
S'hgse_r-znse_a-hgse'
p5339
ag3
(g7
S'\xac\x17\xe5\n\xb6:"@'
p5340
tp5341
Rp5342
aa(lp5343
S'hgse_r-znse_a-hgte'
p5344
ag3
(g7
S'\xc1*\xc8?\x96F"@'
p5345
tp5346
Rp5347
aa(lp5348
S'hgse_r-znse_a-zns'
p5349
ag3
(g7
S'cc\xa8?\xcb5"@'
p5350
tp5351
Rp5352
aa(lp5353
S'hgse_r-znse_a-znse'
p5354
ag3
(g7
S'\xe9\xe5U\x11\xd1="@'
p5355
tp5356
Rp5357
aa(lp5358
S'hgse_r-znse_a-znte'
p5359
ag3
(g7
S'eT\x04\xfb\x05D"@'
p5360
tp5361
Rp5362
aa(lp5363
S'hgse_r-znte_a-cds'
p5364
ag3
(g7
S'\xc8\x0eD\xd0\xfaf#@'
p5365
tp5366
Rp5367
aa(lp5368
S'hgse_r-znte_a-cdse'
p5369
ag3
(g7
S'r\xea\xd4\x92g\xbe#@'
p5370
tp5371
Rp5372
aa(lp5373
S'hgse_r-znte_a-cdte'
p5374
ag3
(g7
S'\xd9i\x8d\xfd\x081$@'
p5375
tp5376
Rp5377
aa(lp5378
S'hgse_r-znte_a-hgs'
p5379
ag3
(g7
S'F\x8cs\x8d<c#@'
p5380
tp5381
Rp5382
aa(lp5383
S'hgse_r-znte_a-hgse'
p5384
ag3
(g7
S'k\x00\x06\xbf"\xbd#@'
p5385
tp5386
Rp5387
aa(lp5388
S'hgse_r-znte_a-hgte'
p5389
ag3
(g7
S'\xfa\x94+\x92\xfb<$@'
p5390
tp5391
Rp5392
aa(lp5393
S'hgse_r-znte_a-zns'
p5394
ag3
(g7
S'\x1baq\xa3U\xee"@'
p5395
tp5396
Rp5397
aa(lp5398
S'hgse_r-znte_a-znse'
p5399
ag3
(g7
S'\x01\xa0\xaa\xdd@7#@'
p5400
tp5401
Rp5402
aa(lp5403
S'hgse_r-znte_a-znte'
p5404
ag3
(g7
S'#\xdd\xb9\xd2\x8c\xbf#@'
p5405
tp5406
Rp5407
aa(lp5408
S'hgte_r-cds_a-cds'
p5409
ag3
(g7
S'!\xe6\xd7\xed20\x1a@'
p5410
tp5411
Rp5412
aa(lp5413
S'hgte_r-cds_a-cdse'
p5414
ag3
(g7
S'\xb8\x99\x1c\x90[2\x1a@'
p5415
tp5416
Rp5417
aa(lp5418
S'hgte_r-cds_a-cdte'
p5419
ag3
(g7
S'\x1fmbL\x9c\xe4\x19@'
p5420
tp5421
Rp5422
aa(lp5423
S'hgte_r-cds_a-hgs'
p5424
ag3
(g7
S'\xf4Fb\xf58/\x1a@'
p5425
tp5426
Rp5427
aa(lp5428
S'hgte_r-cds_a-hgse'
p5429
ag3
(g7
S'\x8e>\xd1\xcc\x151\x1a@'
p5430
tp5431
Rp5432
aa(lp5433
S'hgte_r-cds_a-hgte'
p5434
ag3
(g7
S'\xce\xdc\x07\xe4\x9b\xf9\x19@'
p5435
tp5436
Rp5437
aa(lp5438
S'hgte_r-cds_a-zns'
p5439
ag3
(g7
S'\xa6\x9f\x03\x14\x8f+\x1a@'
p5440
tp5441
Rp5442
aa(lp5443
S'hgte_r-cds_a-znse'
p5444
ag3
(g7
S'\xcb\xc9\x182\xbeA\x1a@'
p5445
tp5446
Rp5447
aa(lp5448
S'hgte_r-cds_a-znte'
p5449
ag3
(g7
S'\xe2J\xff\x9e\xb3\x1d\x1a@'
p5450
tp5451
Rp5452
aa(lp5453
S'hgte_r-cdse_a-cds'
p5454
ag3
(g7
S'\x90+\x04\x9d\xc9\x8e\x15@'
p5455
tp5456
Rp5457
aa(lp5458
S'hgte_r-cdse_a-cdse'
p5459
ag3
(g7
S'S\xcc2}\x9c\x87\x15@'
p5460
tp5461
Rp5462
aa(lp5463
S'hgte_r-cdse_a-cdte'
p5464
ag3
(g7
S'\x8b\xc1\xe8\xc0\xa3\x7f\x15@'
p5465
tp5466
Rp5467
aa(lp5468
S'hgte_r-cdse_a-hgs'
p5469
ag3
(g7
S'E\xc3\x18\xb1\x8c\x7f\x15@'
p5470
tp5471
Rp5472
aa(lp5473
S'hgte_r-cdse_a-hgse'
p5474
ag3
(g7
S'\xca\xcd\xaf?9\x8a\x15@'
p5475
tp5476
Rp5477
aa(lp5478
S'hgte_r-cdse_a-hgte'
p5479
ag3
(g7
S'F\x85\xa3\xdbB\x84\x15@'
p5480
tp5481
Rp5482
aa(lp5483
S'hgte_r-cdse_a-zns'
p5484
ag3
(g7
S'L\xf9\xff\xbaNm\x15@'
p5485
tp5486
Rp5487
aa(lp5488
S'hgte_r-cdse_a-znse'
p5489
ag3
(g7
S'U\xec\x9d\xbae\x96\x15@'
p5490
tp5491
Rp5492
aa(lp5493
S'hgte_r-cdse_a-znte'
p5494
ag3
(g7
S'\x89\xf2K\xfb\x8a\x8a\x15@'
p5495
tp5496
Rp5497
aa(lp5498
S'hgte_r-cdte_a-cds'
p5499
ag3
(g7
S'\xb5P\x8a?\x0e?\n@'
p5500
tp5501
Rp5502
aa(lp5503
S'hgte_r-cdte_a-cdse'
p5504
ag3
(g7
S'`\xde\xbc9\xa9d\n@'
p5505
tp5506
Rp5507
aa(lp5508
S'hgte_r-cdte_a-cdte'
p5509
ag3
(g7
S'\x84\x85\xce@\xd8\xeb\n@'
p5510
tp5511
Rp5512
aa(lp5513
S'hgte_r-cdte_a-hgs'
p5514
ag3
(g7
S'\xd7\xf6\xfc\xe6H%\n@'
p5515
tp5516
Rp5517
aa(lp5518
S'hgte_r-cdte_a-hgse'
p5519
ag3
(g7
S'\xd2G\x83hTm\n@'
p5520
tp5521
Rp5522
aa(lp5523
S'hgte_r-cdte_a-hgte'
p5524
ag3
(g7
S'\xff\x00Q\xce\xf1\xee\n@'
p5525
tp5526
Rp5527
aa(lp5528
S'hgte_r-cdte_a-zns'
p5529
ag3
(g7
S'\x00\xad*\xd0\x11\xd1\t@'
p5530
tp5531
Rp5532
aa(lp5533
S'hgte_r-cdte_a-znse'
p5534
ag3
(g7
S"\xa4\xe5\xd6,\x04'\n@"
p5535
tp5536
Rp5537
aa(lp5538
S'hgte_r-cdte_a-znte'
p5539
ag3
(g7
S'RT\x82\xcf\x05r\n@'
p5540
tp5541
Rp5542
aa(lp5543
S'hgte_r-hgs_a-cds'
p5544
ag3
(g7
S'S)J\xcf-\x90\n@'
p5545
tp5546
Rp5547
aa(lp5548
S'hgte_r-hgs_a-cdse'
p5549
ag3
(g7
S'\xf0\xfe\xf9<SL\n@'
p5550
tp5551
Rp5552
aa(lp5553
S'hgte_r-hgs_a-cdte'
p5554
ag3
(g7
S'\x9dO\xcc\xce\xcf\xae\n@'
p5555
tp5556
Rp5557
aa(lp5558
S'hgte_r-hgs_a-hgs'
p5559
ag3
(g7
S'\xe3.\xd3P%}\n@'
p5560
tp5561
Rp5562
aa(lp5563
S'hgte_r-hgs_a-hgse'
p5564
ag3
(g7
S'\xa7O\x89\x0c\xa6V\n@'
p5565
tp5566
Rp5567
aa(lp5568
S'hgte_r-hgs_a-hgte'
p5569
ag3
(g7
S'\xb0y\xaf\x96\x8c\xba\n@'
p5570
tp5571
Rp5572
aa(lp5573
S'hgte_r-hgs_a-zns'
p5574
ag3
(g7
S'2D\x97\xe3w\xb6\n@'
p5575
tp5576
Rp5577
aa(lp5578
S'hgte_r-hgs_a-znse'
p5579
ag3
(g7
S'{[\x04W\xf9\xa6\n@'
p5580
tp5581
Rp5582
aa(lp5583
S'hgte_r-hgs_a-znte'
p5584
ag3
(g7
S'\xe6\xf2v\x91\xbaH\n@'
p5585
tp5586
Rp5587
aa(lp5588
S'hgte_r-hgse_a-cds'
p5589
ag3
(g7
S'wK\xe1X\xecr\x01@'
p5590
tp5591
Rp5592
aa(lp5593
S'hgte_r-hgse_a-cdse'
p5594
ag3
(g7
S'\xdf\x87\xd5$MN\x01@'
p5595
tp5596
Rp5597
aa(lp5598
S'hgte_r-hgse_a-cdte'
p5599
ag3
(g7
S'\xd3w5k\x173\x01@'
p5600
tp5601
Rp5602
aa(lp5603
S'hgte_r-hgse_a-hgs'
p5604
ag3
(g7
S'|\xd0\x8b\xbf\x13Z\x01@'
p5605
tp5606
Rp5607
aa(lp5608
S'hgte_r-hgse_a-hgse'
p5609
ag3
(g7
S'<\xd8\xbc<\xe5W\x01@'
p5610
tp5611
Rp5612
aa(lp5613
S'hgte_r-hgse_a-hgte'
p5614
ag3
(g7
S'\xf5/\xe3\xcc\xfe\xf4\x00@'
p5615
tp5616
Rp5617
aa(lp5618
S'hgte_r-hgse_a-zns'
p5619
ag3
(g7
S'\x06\xa3\n\xeb\x93\x7f\x01@'
p5620
tp5621
Rp5622
aa(lp5623
S'hgte_r-hgse_a-znse'
p5624
ag3
(g7
S'y\x18M\x07\x88d\x01@'
p5625
tp5626
Rp5627
aa(lp5628
S'hgte_r-hgse_a-znte'
p5629
ag3
(g7
S'\x7f\x88J\x9bK+\x01@'
p5630
tp5631
Rp5632
aa(lp5633
S'hgte_r-zns_a-cds'
p5634
ag3
(g7
S'\xc8\x8e\xfa\xb2\xea\xb7(@'
p5635
tp5636
Rp5637
aa(lp5638
S'hgte_r-zns_a-cdse'
p5639
ag3
(g7
S'\xd7\xf2\x90JE\xb1(@'
p5640
tp5641
Rp5642
aa(lp5643
S'hgte_r-zns_a-cdte'
p5644
ag3
(g7
S'\xd5Y\r@\xe2\xb8(@'
p5645
tp5646
Rp5647
aa(lp5648
S'hgte_r-zns_a-hgs'
p5649
ag3
(g7
S'^\xad\xde\xb5j\xb1(@'
p5650
tp5651
Rp5652
aa(lp5653
S'hgte_r-zns_a-hgse'
p5654
ag3
(g7
S'\xd5\x1b\t\x07\x8a\xae(@'
p5655
tp5656
Rp5657
aa(lp5658
S'hgte_r-zns_a-hgte'
p5659
ag3
(g7
S'\xfeb\xa9\xc3\xc3\xb8(@'
p5660
tp5661
Rp5662
aa(lp5663
S'hgte_r-zns_a-zns'
p5664
ag3
(g7
S'b\xf6\xa2\xef/\x80(@'
p5665
tp5666
Rp5667
aa(lp5668
S'hgte_r-zns_a-znse'
p5669
ag3
(g7
S'\xab\xb3$\x89\xda\xa3(@'
p5670
tp5671
Rp5672
aa(lp5673
S'hgte_r-zns_a-znte'
p5674
ag3
(g7
S'\x8a\xb9\xbcH;\xc2(@'
p5675
tp5676
Rp5677
aa(lp5678
S'hgte_r-znse_a-cds'
p5679
ag3
(g7
S'\xd2\x7fo\xa8\xfaP&@'
p5680
tp5681
Rp5682
aa(lp5683
S'hgte_r-znse_a-cdse'
p5684
ag3
(g7
S'\xfe\xeb\\)da&@'
p5685
tp5686
Rp5687
aa(lp5688
S'hgte_r-znse_a-cdte'
p5689
ag3
(g7
S'\xc6\xd2\x10\xe9:j&@'
p5690
tp5691
Rp5692
aa(lp5693
S'hgte_r-znse_a-hgs'
p5694
ag3
(g7
S'\x15\xa9\xa6\xdf+I&@'
p5695
tp5696
Rp5697
aa(lp5698
S'hgte_r-znse_a-hgse'
p5699
ag3
(g7
S'\x11<\xb2S\xa0Y&@'
p5700
tp5701
Rp5702
aa(lp5703
S'hgte_r-znse_a-hgte'
p5704
ag3
(g7
S'C\x99\xb6\x05\xc2h&@'
p5705
tp5706
Rp5707
aa(lp5708
S'hgte_r-znse_a-zns'
p5709
ag3
(g7
S'\xa7:\xeb\xb8$\x1e&@'
p5710
tp5711
Rp5712
aa(lp5713
S'hgte_r-znse_a-znse'
p5714
ag3
(g7
S'\x8c \x1eI\xefC&@'
p5715
tp5716
Rp5717
aa(lp5718
S'hgte_r-znse_a-znte'
p5719
ag3
(g7
S'\xa7\xa6?hYa&@'
p5720
tp5721
Rp5722
aa(lp5723
S'hgte_r-znte_a-cds'
p5724
ag3
(g7
S'\xf2\x01]=\x026"@'
p5725
tp5726
Rp5727
aa(lp5728
S'hgte_r-znte_a-cdse'
p5729
ag3
(g7
S'>\x932\x0b\x05F"@'
p5730
tp5731
Rp5732
aa(lp5733
S'hgte_r-znte_a-cdte'
p5734
ag3
(g7
S'%M\xd1\x93j:"@'
p5735
tp5736
Rp5737
aa(lp5738
S'hgte_r-znte_a-hgs'
p5739
ag3
(g7
S'k\xd0\x88\nl\'"@'
p5740
tp5741
Rp5742
aa(lp5743
S'hgte_r-znte_a-hgse'
p5744
ag3
(g7
S'\xb5\x8d\xda\xb7\xfcG"@'
p5745
tp5746
Rp5747
aa(lp5748
S'hgte_r-znte_a-hgte'
p5749
ag3
(g7
S'8\x1aV\\?C"@'
p5750
tp5751
Rp5752
aa(lp5753
S'hgte_r-znte_a-zns'
p5754
ag3
(g7
S'{\xa0i\xfc\x14+"@'
p5755
tp5756
Rp5757
aa(lp5758
S'hgte_r-znte_a-znse'
p5759
ag3
(g7
S'\xa5\xbb8Xw+"@'
p5760
tp5761
Rp5762
aa(lp5763
S'hgte_r-znte_a-znte'
p5764
ag3
(g7
S'\xeb\xb5\xc5\xa6\x19:"@'
p5765
tp5766
Rp5767
aa(lp5768
S'inas_r-alas_a-alas'
p5769
ag3
(g7
S'\xe8\x07\x8a\x92"B\xd8?'
p5770
tp5771
Rp5772
aa(lp5773
S'inas_r-alas_a-alp'
p5774
ag3
(g7
S'\x1cl\x9a\xa3\xc1\x9e\xd9?'
p5775
tp5776
Rp5777
aa(lp5778
S'inas_r-alas_a-alsb'
p5779
ag3
(g7
S'\x87z\x86K\xb7\xad\xd5?'
p5780
tp5781
Rp5782
aa(lp5783
S'inas_r-alas_a-gaas'
p5784
ag3
(g7
S'\x89_+\x1e\x15\x15\xd7?'
p5785
tp5786
Rp5787
aa(lp5788
S'inas_r-alas_a-gap'
p5789
ag3
(g7
S'q\xbf\xe4:\xa7\x92\xd8?'
p5790
tp5791
Rp5792
aa(lp5793
S'inas_r-alas_a-gasb'
p5794
ag3
(g7
S'C0\xce\xa5\x9a\xd5\xd4?'
p5795
tp5796
Rp5797
aa(lp5798
S'inas_r-alas_a-inas'
p5799
ag3
(g7
S'2\xd6\xf2\x1e`\n\xd5?'
p5800
tp5801
Rp5802
aa(lp5803
S'inas_r-alas_a-inp'
p5804
ag3
(g7
S'\xdd\xfe\xe7\x18\x8a\xf6\xd5?'
p5805
tp5806
Rp5807
aa(lp5808
S'inas_r-alas_a-insb'
p5809
ag3
(g7
S' \xe5a\xc2\x05G\xd3?'
p5810
tp5811
Rp5812
aa(lp5813
S'inas_r-alp_a-alas'
p5814
ag3
(g7
S'\xf8(\xc2tf?\xe9?'
p5815
tp5816
Rp5817
aa(lp5818
S'inas_r-alp_a-alp'
p5819
ag3
(g7
S'\xdc\xf9w\x14\xe3\x8a\xe8?'
p5820
tp5821
Rp5822
aa(lp5823
S'inas_r-alp_a-alsb'
p5824
ag3
(g7
S'\x08\xfe\x89\x9b\x10\x16\xe7?'
p5825
tp5826
Rp5827
aa(lp5828
S'inas_r-alp_a-gaas'
p5829
ag3
(g7
S'\x92I\x14!-S\xe8?'
p5830
tp5831
Rp5832
aa(lp5833
S'inas_r-alp_a-gap'
p5834
ag3
(g7
S'\xf5@\x18\x03\x04\xa5\xe7?'
p5835
tp5836
Rp5837
aa(lp5838
S'inas_r-alp_a-gasb'
p5839
ag3
(g7
S'7\xf1\xb8\xe4\xffw\xe7?'
p5840
tp5841
Rp5842
aa(lp5843
S'inas_r-alp_a-inas'
p5844
ag3
(g7
S'j\xfcp\xd2\xf6\x8e\xe7?'
p5845
tp5846
Rp5847
aa(lp5848
S'inas_r-alp_a-inp'
p5849
ag3
(g7
S'\xfb,z\xe1s\xcc\xe6?'
p5850
tp5851
Rp5852
aa(lp5853
S'inas_r-alp_a-insb'
p5854
ag3
(g7
S'\x8c\x11Xu7\xb6\xe6?'
p5855
tp5856
Rp5857
aa(lp5858
S'inas_r-alsb_a-alas'
p5859
ag3
(g7
S'\xac\xf6\x1dVqq\xfb?'
p5860
tp5861
Rp5862
aa(lp5863
S'inas_r-alsb_a-alp'
p5864
ag3
(g7
S'\xd1\xb9:\t|u\xfc?'
p5865
tp5866
Rp5867
aa(lp5868
S'inas_r-alsb_a-alsb'
p5869
ag3
(g7
S'\xaf\x97\xbc\xaf\xde\xef\xfa?'
p5870
tp5871
Rp5872
aa(lp5873
S'inas_r-alsb_a-gaas'
p5874
ag3
(g7
S'C\xb5\xd4\x9e\xb7\xe2\xfb?'
p5875
tp5876
Rp5877
aa(lp5878
S'inas_r-alsb_a-gap'
p5879
ag3
(g7
S'\xb1\x9e\xb0\xf4aN\xfc?'
p5880
tp5881
Rp5882
aa(lp5883
S'inas_r-alsb_a-gasb'
p5884
ag3
(g7
S'\xa4U\xe6\x1c2\x81\xfb?'
p5885
tp5886
Rp5887
aa(lp5888
S'inas_r-alsb_a-inas'
p5889
ag3
(g7
S'a84F\xbb,\xfb?'
p5890
tp5891
Rp5892
aa(lp5893
S'inas_r-alsb_a-inp'
p5894
ag3
(g7
S'\x11\xac\xa5\xc7|\xea\xfb?'
p5895
tp5896
Rp5897
aa(lp5898
S'inas_r-alsb_a-insb'
p5899
ag3
(g7
S'\x02i\xcbr\x81d\xfa?'
p5900
tp5901
Rp5902
aa(lp5903
S'inas_r-gaas_a-alas'
p5904
ag3
(g7
S'*\xa8\x0e\xbf\xea \xe8?'
p5905
tp5906
Rp5907
aa(lp5908
S'inas_r-gaas_a-alp'
p5909
ag3
(g7
S'\x1dd\xf5\x12\xebt\xe8?'
p5910
tp5911
Rp5912
aa(lp5913
S'inas_r-gaas_a-alsb'
p5914
ag3
(g7
S'\x87\xa4i5\xd1\xb4\xe6?'
p5915
tp5916
Rp5917
aa(lp5918
S'inas_r-gaas_a-gaas'
p5919
ag3
(g7
S'J+4\x16W\xef\xe7?'
p5920
tp5921
Rp5922
aa(lp5923
S'inas_r-gaas_a-gap'
p5924
ag3
(g7
S')\xe4\x93@\x06%\xe8?'
p5925
tp5926
Rp5927
aa(lp5928
S'inas_r-gaas_a-gasb'
p5929
ag3
(g7
S'x\xc0\t\x10\xcd\xf7\xe6?'
p5930
tp5931
Rp5932
aa(lp5933
S'inas_r-gaas_a-inas'
p5934
ag3
(g7
S'fhu\xf9\xa7\xf0\xe6?'
p5935
tp5936
Rp5937
aa(lp5938
S'inas_r-gaas_a-inp'
p5939
ag3
(g7
S'\xadR\t\xcc\xa5\xe8\xe7?'
p5940
tp5941
Rp5942
aa(lp5943
S'inas_r-gaas_a-insb'
p5944
ag3
(g7
S'\x12\x1c\xdbk\xb8\x93\xe6?'
p5945
tp5946
Rp5947
aa(lp5948
S'inas_r-gap_a-alas'
p5949
ag3
(g7
S'\xfc\xd7\xaf\xcc\xcd|\xf0?'
p5950
tp5951
Rp5952
aa(lp5953
S'inas_r-gap_a-alp'
p5954
ag3
(g7
S'\x0e\x0f\xf8\xa8\xe0l\xf0?'
p5955
tp5956
Rp5957
aa(lp5958
S'inas_r-gap_a-alsb'
p5959
ag3
(g7
S'3qXBv\xf5\xf0?'
p5960
tp5961
Rp5962
aa(lp5963
S'inas_r-gap_a-gaas'
p5964
ag3
(g7
S'\xd2\x9bC\x97\xa8,\xf0?'
p5965
tp5966
Rp5967
aa(lp5968
S'inas_r-gap_a-gap'
p5969
ag3
(g7
S'm\x9f\t\xafI\x11\xf0?'
p5970
tp5971
Rp5972
aa(lp5973
S'inas_r-gap_a-gasb'
p5974
ag3
(g7
S'\x92R\xf0\xf6)\xb1\xf0?'
p5975
tp5976
Rp5977
aa(lp5978
S'inas_r-gap_a-inas'
p5979
ag3
(g7
S'8\xbd(\xca\x8e\xb1\xf0?'
p5980
tp5981
Rp5982
aa(lp5983
S'inas_r-gap_a-inp'
p5984
ag3
(g7
S'\x1aA\xeb2pe\xf0?'
p5985
tp5986
Rp5987
aa(lp5988
S'inas_r-gap_a-insb'
p5989
ag3
(g7
S'\xbf\xfb\xd21\xedt\xf1?'
p5990
tp5991
Rp5992
aa(lp5993
S'inas_r-gasb_a-alas'
p5994
ag3
(g7
S'q\x88\xb7\xc1(\x86\xfe?'
p5995
tp5996
Rp5997
aa(lp5998
S'inas_r-gasb_a-alp'
p5999
ag3
(g7
S'\x07\xab\xad\xc5W\xa7\xfe?'
p6000
tp6001
Rp6002
aa(lp6003
S'inas_r-gasb_a-alsb'
p6004
ag3
(g7
S'\x01h\xc3M\xe0+\xfc?'
p6005
tp6006
Rp6007
aa(lp6008
S'inas_r-gasb_a-gaas'
p6009
ag3
(g7
S',}m\xdd\x0cq\xfe?'
p6010
tp6011
Rp6012
aa(lp6013
S'inas_r-gasb_a-gap'
p6014
ag3
(g7
S'\xa0h\xd5\x82d\xe8\xff?'
p6015
tp6016
Rp6017
aa(lp6018
S'inas_r-gasb_a-gasb'
p6019
ag3
(g7
S'5AH _\xe0\xfc?'
p6020
tp6021
Rp6022
aa(lp6023
S'inas_r-gasb_a-inas'
p6024
ag3
(g7
S'[\xc1\xf7\xc4\xeb\xf0\xfc?'
p6025
tp6026
Rp6027
aa(lp6028
S'inas_r-gasb_a-inp'
p6029
ag3
(g7
S'8*\x94F\xd8=\xfe?'
p6030
tp6031
Rp6032
aa(lp6033
S'inas_r-gasb_a-insb'
p6034
ag3
(g7
S'\xf9\x1a\nAY\x08\xfc?'
p6035
tp6036
Rp6037
aa(lp6038
S'inas_r-inp_a-alas'
p6039
ag3
(g7
S'J:pf\x91\xe0\xe3?'
p6040
tp6041
Rp6042
aa(lp6043
S'inas_r-inp_a-alp'
p6044
ag3
(g7
S'\xce\x03\xfdm\xd3\xf3\xe2?'
p6045
tp6046
Rp6047
aa(lp6048
S'inas_r-inp_a-alsb'
p6049
ag3
(g7
S'\x04\x98\x01\xcd\xf0w\xe3?'
p6050
tp6051
Rp6052
aa(lp6053
S'inas_r-inp_a-gaas'
p6054
ag3
(g7
S'0\xe6\xfeRB\x0f\xe2?'
p6055
tp6056
Rp6057
aa(lp6058
S'inas_r-inp_a-gap'
p6059
ag3
(g7
S'uO\xf5\x01\xb2T\xe2?'
p6060
tp6061
Rp6062
aa(lp6063
S'inas_r-inp_a-gasb'
p6064
ag3
(g7
S'\x8fBz\x0cQ\x86\xe2?'
p6065
tp6066
Rp6067
aa(lp6068
S'inas_r-inp_a-inas'
p6069
ag3
(g7
S'\xe9r\xb7~\xfas\xe1?'
p6070
tp6071
Rp6072
aa(lp6073
S'inas_r-inp_a-inp'
p6074
ag3
(g7
S'f\xbbp\x85\xe0\xe3\xe2?'
p6075
tp6076
Rp6077
aa(lp6078
S'inas_r-inp_a-insb'
p6079
ag3
(g7
S'Q\xcd:\xbcP\x05\xe1?'
p6080
tp6081
Rp6082
aa(lp6083
S'inas_r-insb_a-alas'
p6084
ag3
(g7
S"'\xb0\xce\x82\x06\r\xfa?"
p6085
tp6086
Rp6087
aa(lp6088
S'inas_r-insb_a-alp'
p6089
ag3
(g7
S'\xca^\xe2A\xb5V\xfa?'
p6090
tp6091
Rp6092
aa(lp6093
S'inas_r-insb_a-alsb'
p6094
ag3
(g7
S'u\x04*\xc4+[\xf9?'
p6095
tp6096
Rp6097
aa(lp6098
S'inas_r-insb_a-gaas'
p6099
ag3
(g7
S'\xd4\xc7\x06\x8c\xc6v\xfa?'
p6100
tp6101
Rp6102
aa(lp6103
S'inas_r-insb_a-gap'
p6104
ag3
(g7
S'\xa9\x06\xf7!<\xbe\xfa?'
p6105
tp6106
Rp6107
aa(lp6108
S'inas_r-insb_a-gasb'
p6109
ag3
(g7
S'\x8e\xef\x07p\xecZ\xfa?'
p6110
tp6111
Rp6112
aa(lp6113
S'inas_r-insb_a-inas'
p6114
ag3
(g7
S'\xb6\x8aN\x89\xc5\xfc\xf9?'
p6115
tp6116
Rp6117
aa(lp6118
S'inas_r-insb_a-inp'
p6119
ag3
(g7
S'-Ya\xec\x915\xfa?'
p6120
tp6121
Rp6122
aa(lp6123
S'inas_r-insb_a-insb'
p6124
ag3
(g7
S'&a\x91\x98Pl\xf9?'
p6125
tp6126
Rp6127
aa(lp6128
S'inp_r-alas_a-alas'
p6129
ag3
(g7
S'\xdc\xfb&\x85@\xa0\xe6?'
p6130
tp6131
Rp6132
aa(lp6133
S'inp_r-alas_a-alp'
p6134
ag3
(g7
S'|\x9d\x1a|\xdff\xe6?'
p6135
tp6136
Rp6137
aa(lp6138
S'inp_r-alas_a-alsb'
p6139
ag3
(g7
S'I\xdaDFT\x7f\xe5?'
p6140
tp6141
Rp6142
aa(lp6143
S'inp_r-alas_a-gaas'
p6144
ag3
(g7
S'\x8d\xd1f`\xbf\xdb\xe5?'
p6145
tp6146
Rp6147
aa(lp6148
S'inp_r-alas_a-gap'
p6149
ag3
(g7
S'\x8c\xdfR\x90\tl\xe6?'
p6150
tp6151
Rp6152
aa(lp6153
S'inp_r-alas_a-gasb'
p6154
ag3
(g7
S'^\x9f\x93\xcc\xcb\x98\xe5?'
p6155
tp6156
Rp6157
aa(lp6158
S'inp_r-alas_a-inas'
p6159
ag3
(g7
S'U&\xb8\x8b\xbd\x14\xe5?'
p6160
tp6161
Rp6162
aa(lp6163
S'inp_r-alas_a-inp'
p6164
ag3
(g7
S'FI\t\xc2\xff\x19\xe6?'
p6165
tp6166
Rp6167
aa(lp6168
S'inp_r-alas_a-insb'
p6169
ag3
(g7
S'\xfa\xf5[\x9361\xe4?'
p6170
tp6171
Rp6172
aa(lp6173
S'inp_r-alp_a-alas'
p6174
ag3
(g7
S'p\xaee~\xc39\xd6?'
p6175
tp6176
Rp6177
aa(lp6178
S'inp_r-alp_a-alp'
p6179
ag3
(g7
S'\x93\x082F\xf8\xcb\xd7?'
p6180
tp6181
Rp6182
aa(lp6183
S'inp_r-alp_a-alsb'
p6184
ag3
(g7
S'\x89\x7f\xd6\x8d\xeb\x1b\xd5?'
p6185
tp6186
Rp6187
aa(lp6188
S'inp_r-alp_a-gaas'
p6189
ag3
(g7
S'\x9d\xce\xac\x0f\xc5W\xd7?'
p6190
tp6191
Rp6192
aa(lp6193
S'inp_r-alp_a-gap'
p6194
ag3
(g7
S'\x12\xae\x1av1\xeb\xd7?'
p6195
tp6196
Rp6197
aa(lp6198
S'inp_r-alp_a-gasb'
p6199
ag3
(g7
S'\x06\xa3hl\xdf`\xd4?'
p6200
tp6201
Rp6202
aa(lp6203
S'inp_r-alp_a-inas'
p6204
ag3
(g7
S'mx\xfb\xec>1\xd5?'
p6205
tp6206
Rp6207
aa(lp6208
S'inp_r-alp_a-inp'
p6209
ag3
(g7
S'\xaa\xed\x8d\xb1 :\xd5?'
p6210
tp6211
Rp6212
aa(lp6213
S'inp_r-alp_a-insb'
p6214
ag3
(g7
S'\x81\xda&\xf0\xa7\x9a\xd3?'
p6215
tp6216
Rp6217
aa(lp6218
S'inp_r-alsb_a-alas'
p6219
ag3
(g7
S'%O\x10\x86\x80\x99\x02@'
p6220
tp6221
Rp6222
aa(lp6223
S'inp_r-alsb_a-alp'
p6224
ag3
(g7
S'\x9eSo$\x81\xd0\x02@'
p6225
tp6226
Rp6227
aa(lp6228
S'inp_r-alsb_a-alsb'
p6229
ag3
(g7
S'z\xd2;N\xa3F\x02@'
p6230
tp6231
Rp6232
aa(lp6233
S'inp_r-alsb_a-gaas'
p6234
ag3
(g7
S'\xd7\xaa\xa2;wK\x02@'
p6235
tp6236
Rp6237
aa(lp6238
S'inp_r-alsb_a-gap'
p6239
ag3
(g7
S'2\x11}2\xa9\x8d\x02@'
p6240
tp6241
Rp6242
aa(lp6243
S'inp_r-alsb_a-gasb'
p6244
ag3
(g7
S'#\xa1\xe5\x99\x9fI\x02@'
p6245
tp6246
Rp6247
aa(lp6248
S'inp_r-alsb_a-inas'
p6249
ag3
(g7
S'\x9eW\x9e\x11G\xd0\x01@'
p6250
tp6251
Rp6252
aa(lp6253
S'inp_r-alsb_a-inp'
p6254
ag3
(g7
S'3\xdaH\x81S\x90\x02@'
p6255
tp6256
Rp6257
aa(lp6258
S'inp_r-alsb_a-insb'
p6259
ag3
(g7
S'0YM\x035P\x01@'
p6260
tp6261
Rp6262
aa(lp6263
S'inp_r-gaas_a-alas'
p6264
ag3
(g7
S'\x8d\x9eet\x95\xf3\xee?'
p6265
tp6266
Rp6267
aa(lp6268
S'inp_r-gaas_a-alp'
p6269
ag3
(g7
S'XH\x9e\x82\xceH\xef?'
p6270
tp6271
Rp6272
aa(lp6273
S'inp_r-gaas_a-alsb'
p6274
ag3
(g7
S'\xca\x9f?\xfa\x1a\xaa\xec?'
p6275
tp6276
Rp6277
aa(lp6278
S'inp_r-gaas_a-gaas'
p6279
ag3
(g7
S'\xc8s\xf5\x89V\xa1\xee?'
p6280
tp6281
Rp6282
aa(lp6283
S'inp_r-gaas_a-gap'
p6284
ag3
(g7
S'\xe0\x0b\xa9\x0b\xa6L\xef?'
p6285
tp6286
Rp6287
aa(lp6288
S'inp_r-gaas_a-gasb'
p6289
ag3
(g7
S'\x1a\xce_\xfa\xa4\xce\xec?'
p6290
tp6291
Rp6292
aa(lp6293
S'inp_r-gaas_a-inas'
p6294
ag3
(g7
S'\x1b\x8bs\x86\xeeH\xec?'
p6295
tp6296
Rp6297
aa(lp6298
S'inp_r-gaas_a-inp'
p6299
ag3
(g7
S'o\xb3X(\xe3m\xee?'
p6300
tp6301
Rp6302
aa(lp6303
S'inp_r-gaas_a-insb'
p6304
ag3
(g7
S'h{\xe4"Y\x15\xea?'
p6305
tp6306
Rp6307
aa(lp6308
S'inp_r-gap_a-alas'
p6309
ag3
(g7
S'\xed\xdc\xdf%q\xc2\xe6?'
p6310
tp6311
Rp6312
aa(lp6313
S'inp_r-gap_a-alp'
p6314
ag3
(g7
S'>\x17\xf6Y\x04t\xe7?'
p6315
tp6316
Rp6317
aa(lp6318
S'inp_r-gap_a-alsb'
p6319
ag3
(g7
S'\xb5\x84\x8d:9\x96\xe6?'
p6320
tp6321
Rp6322
aa(lp6323
S'inp_r-gap_a-gaas'
p6324
ag3
(g7
S'\x87\xd4R\xf2\x96\xdc\xe6?'
p6325
tp6326
Rp6327
aa(lp6328
S'inp_r-gap_a-gap'
p6329
ag3
(g7
S'\x15j.\xa7V\x87\xe7?'
p6330
tp6331
Rp6332
aa(lp6333
S'inp_r-gap_a-gasb'
p6334
ag3
(g7
S'\xcbXA3I\xa7\xe6?'
p6335
tp6336
Rp6337
aa(lp6338
S'inp_r-gap_a-inas'
p6339
ag3
(g7
S'\xbd\xa6We\x95\x13\xe6?'
p6340
tp6341
Rp6342
aa(lp6343
S'inp_r-gap_a-inp'
p6344
ag3
(g7
S'\xcehU\xf4@\x88\xe6?'
p6345
tp6346
Rp6347
aa(lp6348
S'inp_r-gap_a-insb'
p6349
ag3
(g7
S's(\xacJ\x97\t\xe5?'
p6350
tp6351
Rp6352
aa(lp6353
S'inp_r-gasb_a-alas'
p6354
ag3
(g7
S'B\xe7\x18}\xc1\x03\x04@'
p6355
tp6356
Rp6357
aa(lp6358
S'inp_r-gasb_a-alp'
p6359
ag3
(g7
S'\xedW\xa4\t\xe2\xc5\x03@'
p6360
tp6361
Rp6362
aa(lp6363
S'inp_r-gasb_a-alsb'
p6364
ag3
(g7
S'\xaalH\x97Q\xd2\x02@'
p6365
tp6366
Rp6367
aa(lp6368
S'inp_r-gasb_a-gaas'
p6369
ag3
(g7
S'G\x8c\xc2,gk\x03@'
p6370
tp6371
Rp6372
aa(lp6373
S'inp_r-gasb_a-gap'
p6374
ag3
(g7
S"^\x80$\x904'\x04@"
p6375
tp6376
Rp6377
aa(lp6378
S'inp_r-gasb_a-gasb'
p6379
ag3
(g7
S'9^ \xfcm\xe3\x02@'
p6380
tp6381
Rp6382
aa(lp6383
S'inp_r-gasb_a-inas'
p6384
ag3
(g7
S'[\xf3R^\n\x94\x02@'
p6385
tp6386
Rp6387
aa(lp6388
S'inp_r-gasb_a-inp'
p6389
ag3
(g7
S'\x9b2z~6\x99\x03@'
p6390
tp6391
Rp6392
aa(lp6393
S'inp_r-gasb_a-insb'
p6394
ag3
(g7
S'\x10XA\x17\xcc\xff\x01@'
p6395
tp6396
Rp6397
aa(lp6398
S'inp_r-inas_a-alas'
p6399
ag3
(g7
S'J:pf\x91\xe0\xe3?'
p6400
tp6401
Rp6402
aa(lp6403
S'inp_r-inas_a-alp'
p6404
ag3
(g7
S'\xce\x03\xfdm\xd3\xf3\xe2?'
p6405
tp6406
Rp6407
aa(lp6408
S'inp_r-inas_a-alsb'
p6409
ag3
(g7
S'\x04\x98\x01\xcd\xf0w\xe3?'
p6410
tp6411
Rp6412
aa(lp6413
S'inp_r-inas_a-gaas'
p6414
ag3
(g7
S'0\xe6\xfeRB\x0f\xe2?'
p6415
tp6416
Rp6417
aa(lp6418
S'inp_r-inas_a-gap'
p6419
ag3
(g7
S'uO\xf5\x01\xb2T\xe2?'
p6420
tp6421
Rp6422
aa(lp6423
S'inp_r-inas_a-gasb'
p6424
ag3
(g7
S'\x8fBz\x0cQ\x86\xe2?'
p6425
tp6426
Rp6427
aa(lp6428
S'inp_r-inas_a-inas'
p6429
ag3
(g7
S'\xe9r\xb7~\xfas\xe1?'
p6430
tp6431
Rp6432
aa(lp6433
S'inp_r-inas_a-inp'
p6434
ag3
(g7
S'f\xbbp\x85\xe0\xe3\xe2?'
p6435
tp6436
Rp6437
aa(lp6438
S'inp_r-inas_a-insb'
p6439
ag3
(g7
S'Q\xcd:\xbcP\x05\xe1?'
p6440
tp6441
Rp6442
aa(lp6443
S'inp_r-insb_a-alas'
p6444
ag3
(g7
S'\x02\xd1\x1fe\xb3\xf0\x01@'
p6445
tp6446
Rp6447
aa(lp6448
S'inp_r-insb_a-alp'
p6449
ag3
(g7
S'\x08\xb8h\x01u\xd2\x01@'
p6450
tp6451
Rp6452
aa(lp6453
S'inp_r-insb_a-alsb'
p6454
ag3
(g7
S'\x86\xc7p\xd3\x8b\x82\x01@'
p6455
tp6456
Rp6457
aa(lp6458
S'inp_r-insb_a-gaas'
p6459
ag3
(g7
S'/)\xe6TO\xa2\x01@'
p6460
tp6461
Rp6462
aa(lp6463
S'inp_r-insb_a-gap'
p6464
ag3
(g7
S'\x8d\xf4|S\xf0\xd4\x01@'
p6465
tp6466
Rp6467
aa(lp6468
S'inp_r-insb_a-gasb'
p6469
ag3
(g7
S'\xf0\x93gu#\xbe\x01@'
p6470
tp6471
Rp6472
aa(lp6473
S'inp_r-insb_a-inas'
p6474
ag3
(g7
S'l\x1dV\xf2rB\x01@'
p6475
tp6476
Rp6477
aa(lp6478
S'inp_r-insb_a-inp'
p6479
ag3
(g7
S'\xe8\xaa\x9c\x83\x1e\xc2\x01@'
p6480
tp6481
Rp6482
aa(lp6483
S'inp_r-insb_a-insb'
p6484
ag3
(g7
S'\x94\xbcCd\x0e\xde\x00@'
p6485
tp6486
Rp6487
aa(lp6488
S'insb_r-alas_a-alas'
p6489
ag3
(g7
S'\xf0y\xde\x17[l\xfb?'
p6490
tp6491
Rp6492
aa(lp6493
S'insb_r-alas_a-alp'
p6494
ag3
(g7
S'\t\x9b\xb0\n\xfd\x95\xfb?'
p6495
tp6496
Rp6497
aa(lp6498
S'insb_r-alas_a-alsb'
p6499
ag3
(g7
S'\x13$Q\x9c\xe59\xfb?'
p6500
tp6501
Rp6502
aa(lp6503
S'insb_r-alas_a-gaas'
p6504
ag3
(g7
S'\xbd5\x9c+\xb3o\xfb?'
p6505
tp6506
Rp6507
aa(lp6508
S'insb_r-alas_a-gap'
p6509
ag3
(g7
S'\xd4\x8c\xfb`\x99\x9c\xfb?'
p6510
tp6511
Rp6512
aa(lp6513
S'insb_r-alas_a-gasb'
p6514
ag3
(g7
S'b"\x0b\x86\xae\xa5\xfb?'
p6515
tp6516
Rp6517
aa(lp6518
S'insb_r-alas_a-inas'
p6519
ag3
(g7
S'#\xab\x0b\xcd\xba+\xfb?'
p6520
tp6521
Rp6522
aa(lp6523
S'insb_r-alas_a-inp'
p6524
ag3
(g7
S'F\xd3(\tuU\xfb?'
p6525
tp6526
Rp6527
aa(lp6528
S'insb_r-alas_a-insb'
p6529
ag3
(g7
S'>\xed\xbd\xef\x8c.\xfb?'
p6530
tp6531
Rp6532
aa(lp6533
S'insb_r-alp_a-alas'
p6534
ag3
(g7
S'yx\x02c*\x1d\x02@'
p6535
tp6536
Rp6537
aa(lp6538
S'insb_r-alp_a-alp'
p6539
ag3
(g7
S'\x04\xa59}\xd0\xe7\x01@'
p6540
tp6541
Rp6542
aa(lp6543
S'insb_r-alp_a-alsb'
p6544
ag3
(g7
S'\x1b\x13\xb1\xc2A\x8d\x01@'
p6545
tp6546
Rp6547
aa(lp6548
S'insb_r-alp_a-gaas'
p6549
ag3
(g7
S'U\xde1\x87\x99 \x02@'
p6550
tp6551
Rp6552
aa(lp6553
S'insb_r-alp_a-gap'
p6554
ag3
(g7
S'lV\xaf\xe6~\xe5\x01@'
p6555
tp6556
Rp6557
aa(lp6558
S'insb_r-alp_a-gasb'
p6559
ag3
(g7
S'1\xdc\xaf\x12\x1a-\x02@'
p6560
tp6561
Rp6562
aa(lp6563
S'insb_r-alp_a-inas'
p6564
ag3
(g7
S'i\xb3\xf5\xcf\xe6\xfe\x01@'
p6565
tp6566
Rp6567
aa(lp6568
S'insb_r-alp_a-inp'
p6569
ag3
(g7
S'\xc2\x17BiK\xb2\x01@'
p6570
tp6571
Rp6572
aa(lp6573
S'insb_r-alp_a-insb'
p6574
ag3
(g7
S'\xe8/Q\x9c\xca\x8f\x01@'
p6575
tp6576
Rp6577
aa(lp6578
S'insb_r-alsb_a-alas'
p6579
ag3
(g7
S'.h\xb2?#\xd1\xd9?'
p6580
tp6581
Rp6582
aa(lp6583
S'insb_r-alsb_a-alp'
p6584
ag3
(g7
S'\x86\xb2\xf9\x9fMz\xda?'
p6585
tp6586
Rp6587
aa(lp6588
S'insb_r-alsb_a-alsb'
p6589
ag3
(g7
S'\x87u\x05Z\x8dw\xd6?'
p6590
tp6591
Rp6592
aa(lp6593
S'insb_r-alsb_a-gaas'
p6594
ag3
(g7
S'\xa6\xcb`\xec~\n\xda?'
p6595
tp6596
Rp6597
aa(lp6598
S'insb_r-alsb_a-gap'
p6599
ag3
(g7
S'\xe8\x94i\x0cW]\xdb?'
p6600
tp6601
Rp6602
aa(lp6603
S'insb_r-alsb_a-gasb'
p6604
ag3
(g7
S'\x07\x87A\x9eme\xd7?'
p6605
tp6606
Rp6607
aa(lp6608
S'insb_r-alsb_a-inas'
p6609
ag3
(g7
S'\xef\xd6\xedVHv\xd7?'
p6610
tp6611
Rp6612
aa(lp6613
S'insb_r-alsb_a-inp'
p6614
ag3
(g7
S'&\xbf\x07-\x91\xa1\xd7?'
p6615
tp6616
Rp6617
aa(lp6618
S'insb_r-alsb_a-insb'
p6619
ag3
(g7
S'\xf6zH#r\x91\xd4?'
p6620
tp6621
Rp6622
aa(lp6623
S'insb_r-gaas_a-alas'
p6624
ag3
(g7
S'\xb3\xd9\xa6\xdc7a\xfd?'
p6625
tp6626
Rp6627
aa(lp6628
S'insb_r-gaas_a-alp'
p6629
ag3
(g7
S'\xb4\x81x\x8c+1\xfd?'
p6630
tp6631
Rp6632
aa(lp6633
S'insb_r-gaas_a-alsb'
p6634
ag3
(g7
S'\xacD\xc6\x95g\xc6\xfe?'
p6635
tp6636
Rp6637
aa(lp6638
S'insb_r-gaas_a-gaas'
p6639
ag3
(g7
S',\xb9\xda\x93\xe5^\xfd?'
p6640
tp6641
Rp6642
aa(lp6643
S'insb_r-gaas_a-gap'
p6644
ag3
(g7
S'q\xdf\x87Jr9\xfd?'
p6645
tp6646
Rp6647
aa(lp6648
S'insb_r-gaas_a-gasb'
p6649
ag3
(g7
S'\xae\xd9u\xf1\xca\x01\xff?'
p6650
tp6651
Rp6652
aa(lp6653
S'insb_r-gaas_a-inas'
p6654
ag3
(g7
S'\x83\x13^\xc2\xdb\x89\xfe?'
p6655
tp6656
Rp6657
aa(lp6658
S'insb_r-gaas_a-inp'
p6659
ag3
(g7
S'\x8aw%\xe9:\xf5\xfd?'
p6660
tp6661
Rp6662
aa(lp6663
S'insb_r-gaas_a-insb'
p6664
ag3
(g7
S'k\xde\xd8\xa5l\xaa\xff?'
p6665
tp6666
Rp6667
aa(lp6668
S'insb_r-gap_a-alas'
p6669
ag3
(g7
S'3V\x9axO\xcd\x02@'
p6670
tp6671
Rp6672
aa(lp6673
S'insb_r-gap_a-alp'
p6674
ag3
(g7
S't`7\x10\xe5\x9c\x02@'
p6675
tp6676
Rp6677
aa(lp6678
S'insb_r-gap_a-alsb'
p6679
ag3
(g7
S'1\xff\xb3/\x01l\x03@'
p6680
tp6681
Rp6682
aa(lp6683
S'insb_r-gap_a-gaas'
p6684
ag3
(g7
S'\xc4\\8|T\xce\x02@'
p6685
tp6686
Rp6687
aa(lp6688
S'insb_r-gap_a-gap'
p6689
ag3
(g7
S'\x97h\x0e\\\x17\x99\x02@'
p6690
tp6691
Rp6692
aa(lp6693
S'insb_r-gap_a-gasb'
p6694
ag3
(g7
S'\xfbCI\xc1\x8f\x84\x03@'
p6695
tp6696
Rp6697
aa(lp6698
S'insb_r-gap_a-inas'
p6699
ag3
(g7
S'\xe78\r\xe8\xdeW\x03@'
p6700
tp6701
Rp6702
aa(lp6703
S'insb_r-gap_a-inp'
p6704
ag3
(g7
S'\xdc`\xab\xacg\x0b\x03@'
p6705
tp6706
Rp6707
aa(lp6708
S'insb_r-gap_a-insb'
p6709
ag3
(g7
S' 0m;\x80\xfe\x03@'
p6710
tp6711
Rp6712
aa(lp6713
S'insb_r-gasb_a-alas'
p6714
ag3
(g7
S'\xf6b\x854\xd1\\\xe9?'
p6715
tp6716
Rp6717
aa(lp6718
S'insb_r-gasb_a-alp'
p6719
ag3
(g7
S'\x00\xe2\x02>\xa3\x12\xea?'
p6720
tp6721
Rp6722
aa(lp6723
S'insb_r-gasb_a-alsb'
p6724
ag3
(g7
S"\xf5\x1d\x1a'\x19\xab\xe7?"
p6725
tp6726
Rp6727
aa(lp6728
S'insb_r-gasb_a-gaas'
p6729
ag3
(g7
S'\xb5\x9a\x11\xe1Xk\xe9?'
p6730
tp6731
Rp6732
aa(lp6733
S'insb_r-gasb_a-gap'
p6734
ag3
(g7
S'\xf7\xed\x91\xa2\x99,\xea?'
p6735
tp6736
Rp6737
aa(lp6738
S'insb_r-gasb_a-gasb'
p6739
ag3
(g7
S"''\x0c2\x11\x03\xe8?"
p6740
tp6741
Rp6742
aa(lp6743
S'insb_r-gasb_a-inas'
p6744
ag3
(g7
S'\xdf\x06\x99S\xb8\xc9\xe7?'
p6745
tp6746
Rp6747
aa(lp6748
S'insb_r-gasb_a-inp'
p6749
ag3
(g7
S'e\xe3F\x9fn\xe9\xe8?'
p6750
tp6751
Rp6752
aa(lp6753
S'insb_r-gasb_a-insb'
p6754
ag3
(g7
S'02-\x01\x9cV\xe8?'
p6755
tp6756
Rp6757
aa(lp6758
S'insb_r-inas_a-alas'
p6759
ag3
(g7
S"'\xb0\xce\x82\x06\r\xfa?"
p6760
tp6761
Rp6762
aa(lp6763
S'insb_r-inas_a-alp'
p6764
ag3
(g7
S'\xca^\xe2A\xb5V\xfa?'
p6765
tp6766
Rp6767
aa(lp6768
S'insb_r-inas_a-alsb'
p6769
ag3
(g7
S'u\x04*\xc4+[\xf9?'
p6770
tp6771
Rp6772
aa(lp6773
S'insb_r-inas_a-gaas'
p6774
ag3
(g7
S'\xd4\xc7\x06\x8c\xc6v\xfa?'
p6775
tp6776
Rp6777
aa(lp6778
S'insb_r-inas_a-gap'
p6779
ag3
(g7
S'\xa9\x06\xf7!<\xbe\xfa?'
p6780
tp6781
Rp6782
aa(lp6783
S'insb_r-inas_a-gasb'
p6784
ag3
(g7
S'\x8e\xef\x07p\xecZ\xfa?'
p6785
tp6786
Rp6787
aa(lp6788
S'insb_r-inas_a-inas'
p6789
ag3
(g7
S'\xb6\x8aN\x89\xc5\xfc\xf9?'
p6790
tp6791
Rp6792
aa(lp6793
S'insb_r-inas_a-inp'
p6794
ag3
(g7
S'-Ya\xec\x915\xfa?'
p6795
tp6796
Rp6797
aa(lp6798
S'insb_r-inas_a-insb'
p6799
ag3
(g7
S'&a\x91\x98Pl\xf9?'
p6800
tp6801
Rp6802
aa(lp6803
S'insb_r-inp_a-alas'
p6804
ag3
(g7
S'\x02\xd1\x1fe\xb3\xf0\x01@'
p6805
tp6806
Rp6807
aa(lp6808
S'insb_r-inp_a-alp'
p6809
ag3
(g7
S'\x08\xb8h\x01u\xd2\x01@'
p6810
tp6811
Rp6812
aa(lp6813
S'insb_r-inp_a-alsb'
p6814
ag3
(g7
S'\x86\xc7p\xd3\x8b\x82\x01@'
p6815
tp6816
Rp6817
aa(lp6818
S'insb_r-inp_a-gaas'
p6819
ag3
(g7
S'/)\xe6TO\xa2\x01@'
p6820
tp6821
Rp6822
aa(lp6823
S'insb_r-inp_a-gap'
p6824
ag3
(g7
S'\x8d\xf4|S\xf0\xd4\x01@'
p6825
tp6826
Rp6827
aa(lp6828
S'insb_r-inp_a-gasb'
p6829
ag3
(g7
S'\xf0\x93gu#\xbe\x01@'
p6830
tp6831
Rp6832
aa(lp6833
S'insb_r-inp_a-inas'
p6834
ag3
(g7
S'l\x1dV\xf2rB\x01@'
p6835
tp6836
Rp6837
aa(lp6838
S'insb_r-inp_a-inp'
p6839
ag3
(g7
S'\xe8\xaa\x9c\x83\x1e\xc2\x01@'
p6840
tp6841
Rp6842
aa(lp6843
S'insb_r-inp_a-insb'
p6844
ag3
(g7
S'\x94\xbcCd\x0e\xde\x00@'
p6845
tp6846
Rp6847
aa(lp6848
S'si_r-c_a-c'
p6849
ag3
(g7
S'\x8d\x1b\xbb\xae\x83@\x11@'
p6850
tp6851
Rp6852
aa(lp6853
S'si_r-c_a-cge'
p6854
ag3
(g7
S'y\x12+qQ\xf0\x14@'
p6855
tp6856
Rp6857
aa(lp6858
S'si_r-c_a-ge'
p6859
ag3
(g7
S'\xfb\xc9\xfc\x89\x91E\x15@'
p6860
tp6861
Rp6862
aa(lp6863
S'si_r-c_a-gesn'
p6864
ag3
(g7
S'2\xb0\x9c\xee\xec\x01 @'
p6865
tp6866
Rp6867
aa(lp6868
S'si_r-c_a-si'
p6869
ag3
(g7
S'\x04\x8fI\x18\xb5\xb5\x14@'
p6870
tp6871
Rp6872
aa(lp6873
S'si_r-c_a-sic'
p6874
ag3
(g7
S'%8b\x90\xda\xcb\x11@'
p6875
tp6876
Rp6877
aa(lp6878
S'si_r-c_a-sige'
p6879
ag3
(g7
S'\xab\xf3\xe7\xa1\xcf\xa5\x14@'
p6880
tp6881
Rp6882
aa(lp6883
S'si_r-c_a-sn'
p6884
ag3
(g7
S'\x00\x00\x00\x00\x00\x00\x00\x00'
p6885
tp6886
Rp6887
aa(lp6888
S'si_r-c_a-snsi'
p6889
ag3
(g7
S'\xd3\xef4\xf1\xbe\x88\x15@'
p6890
tp6891
Rp6892
aa(lp6893
S'si_r-cge_a-c'
p6894
ag3
(g7
S'nQ\xabE\xe6\xff\r@'
p6895
tp6896
Rp6897
aa(lp6898
S'si_r-cge_a-cge'
p6899
ag3
(g7
S'\x16r\x970!\xde\x08@'
p6900
tp6901
Rp6902
aa(lp6903
S'si_r-cge_a-ge'
p6904
ag3
(g7
S'!(\x05\xbaL\xca\x08@'
p6905
tp6906
Rp6907
aa(lp6908
S'si_r-cge_a-gesn'
p6909
ag3
(g7
S'M\x1et\x8d\xfa\xff\x1f@'
p6910
tp6911
Rp6912
aa(lp6913
S'si_r-cge_a-si'
p6914
ag3
(g7
S'6\x12\xf5\xa0\xe7\x16\t@'
p6915
tp6916
Rp6917
aa(lp6918
S'si_r-cge_a-sic'
p6919
ag3
(g7
S'\x18\xed\x13\xf3\xe2\xe0\n@'
p6920
tp6921
Rp6922
aa(lp6923
S'si_r-cge_a-sige'
p6924
ag3
(g7
S'N\xdb\xe79\xfd\xff\x08@'
p6925
tp6926
Rp6927
aa(lp6928
S'si_r-cge_a-sn'
p6929
ag3
(g7
S'\x00\x00\x00\x00\x00\x00\x00\x00'
p6930
tp6931
Rp6932
aa(lp6933
S'si_r-cge_a-snsi'
p6934
ag3
(g7
S']\xac\x1f\x8c%\x9f\x08@'
p6935
tp6936
Rp6937
aa(lp6938
S'si_r-ge_a-c'
p6939
ag3
(g7
S'\xd5X-z\x05f\xd6?'
p6940
tp6941
Rp6942
aa(lp6943
S'si_r-ge_a-cge'
p6944
ag3
(g7
S'\xae\x8aP?\x84\xf0\xd1?'
p6945
tp6946
Rp6947
aa(lp6948
S'si_r-ge_a-ge'
p6949
ag3
(g7
S'Y\xd2\x99H\xbc\xd3\xd5?'
p6950
tp6951
Rp6952
aa(lp6953
S'si_r-ge_a-gesn'
p6954
ag3
(g7
S'hg\xf6\x99\xfb\xff\x1f@'
p6955
tp6956
Rp6957
aa(lp6958
S'si_r-ge_a-si'
p6959
ag3
(g7
S"r\xd8\xc5W\x86'\xce?"
p6960
tp6961
Rp6962
aa(lp6963
S'si_r-ge_a-sic'
p6964
ag3
(g7
S'\xea\x14\x1c\xf7\xe8X\xd5?'
p6965
tp6966
Rp6967
aa(lp6968
S'si_r-ge_a-sige'
p6969
ag3
(g7
S'\xd1\x8b\x8f\xcaC?\xd2?'
p6970
tp6971
Rp6972
aa(lp6973
S'si_r-ge_a-sn'
p6974
ag3
(g7
S'\xb8U3\x97\x01\x00 @'
p6975
tp6976
Rp6977
aa(lp6978
S'si_r-ge_a-snsi'
p6979
ag3
(g7
S'\x16\r\x07\x1b\xe9\xff\x1f@'
p6980
tp6981
Rp6982
aa(lp6983
S'si_r-gesn_a-c'
p6984
ag3
(g7
S'\x7f]7\xae\xe7\xdb\xfa?'
p6985
tp6986
Rp6987
aa(lp6988
S'si_r-gesn_a-cge'
p6989
ag3
(g7
S'\xf1\x12\xdb\x19\x91\x1c\xf4?'
p6990
tp6991
Rp6992
aa(lp6993
S'si_r-gesn_a-ge'
p6994
ag3
(g7
S'4\x11\xfc\xc5\x08\x00 @'
p6995
tp6996
Rp6997
aa(lp6998
S'si_r-gesn_a-gesn'
p6999
ag3
(g7
S'\x00\x00\x00\x00\x00\x00\x00\x00'
p7000
tp7001
Rp7002
aa(lp7003
S'si_r-gesn_a-si'
p7004
ag3
(g7
S'N\xf8\xe4\xdd\xfb\xe1\xf3?'
p7005
tp7006
Rp7007
aa(lp7008
S'si_r-gesn_a-sic'
p7009
ag3
(g7
S'}\xbb\xa7\xa5\xe7\xdd\xf7?'
p7010
tp7011
Rp7012
aa(lp7013
S'si_r-gesn_a-sige'
p7014
ag3
(g7
S'>\xe0\xb6\x84`t\xf4?'
p7015
tp7016
Rp7017
aa(lp7018
S'si_r-gesn_a-sn'
p7019
ag3
(g7
S'>P\xcf\x95\xfa\xff\x1f@'
p7020
tp7021
Rp7022
aa(lp7023
S'si_r-gesn_a-snsi'
p7024
ag3
(g7
S'\xb3\xddK{\xf7]\xf3?'
p7025
tp7026
Rp7027
aa(lp7028
S'si_r-sic_a-c'
p7029
ag3
(g7
S'\xaa(\x8c\x03\x17\x81\r@'
p7030
tp7031
Rp7032
aa(lp7033
S'si_r-sic_a-cge'
p7034
ag3
(g7
S'\xbc\xc9\xd1\xeeK\xa9\x08@'
p7035
tp7036
Rp7037
aa(lp7038
S'si_r-sic_a-ge'
p7039
ag3
(g7
S'X\x1f\xb4<*\x8c\x08@'
p7040
tp7041
Rp7042
aa(lp7043
S'si_r-sic_a-gesn'
p7044
ag3
(g7
S'\x00\x00\x00\x00\x00\x00\x00\x00'
p7045
tp7046
Rp7047
aa(lp7048
S'si_r-sic_a-si'
p7049
ag3
(g7
S'=\xda\x15"O\xd2\x08@'
p7050
tp7051
Rp7052
aa(lp7053
S'si_r-sic_a-sic'
p7054
ag3
(g7
S'\x11\x1a\xe7\xe8\xaf\xb4\n@'
p7055
tp7056
Rp7057
aa(lp7058
S'si_r-sic_a-sige'
p7059
ag3
(g7
S'x4\xb7\xc6\x15\xbb\x08@'
p7060
tp7061
Rp7062
aa(lp7063
S'si_r-sic_a-sn'
p7064
ag3
(g7
S'\x00\x00\x00\x00\x00\x00\x00\x00'
p7065
tp7066
Rp7067
aa(lp7068
S'si_r-sic_a-snsi'
p7069
ag3
(g7
S'\x16\r\x07\x1b\xe9\xff\x1f@'
p7070
tp7071
Rp7072
aa(lp7073
S'si_r-sige_a-c'
p7074
ag3
(g7
S'\xea"\xf6\x86\xa9#\xd0?'
p7075
tp7076
Rp7077
aa(lp7078
S'si_r-sige_a-cge'
p7079
ag3
(g7
S'X\xf9\xe6R \x87\xc3?'
p7080
tp7081
Rp7082
aa(lp7083
S'si_r-sige_a-ge'
p7084
ag3
(g7
S' \xcd\xd0J)_\xc3?'
p7085
tp7086
Rp7087
aa(lp7088
S'si_r-sige_a-gesn'
p7089
ag3
(g7
S'\x88\r\xe8\x84\xfa\xff\x1f@'
p7090
tp7091
Rp7092
aa(lp7093
S'si_r-sige_a-si'
p7094
ag3
(g7
S'\x95\xea\x04\x12m\xbd\xc0?'
p7095
tp7096
Rp7097
aa(lp7098
S'si_r-sige_a-sic'
p7099
ag3
(g7
S')\xe7h\xe0"i\xc9?'
p7100
tp7101
Rp7102
aa(lp7103
S'si_r-sige_a-sige'
p7104
ag3
(g7
S'H\x143\x02E\xd3\xc3?'
p7105
tp7106
Rp7107
aa(lp7108
S'si_r-sige_a-sn'
p7109
ag3
(g7
S'\x00\x00\x00\x00\x00\x00\x00\x00'
p7110
tp7111
Rp7112
aa(lp7113
S'si_r-sige_a-snsi'
p7114
ag3
(g7
S'\x83~\xa6\x08m\xd2\xc3?'
p7115
tp7116
Rp7117
aa(lp7118
S'si_r-sn_a-c'
p7119
ag3
(g7
S'`\x08\xfbh\xba\xc7\x04@'
p7120
tp7121
Rp7122
aa(lp7123
S'si_r-sn_a-cge'
p7124
ag3
(g7
S'\x99\xb8a\xac\xf3\xff\x1f@'
p7125
tp7126
Rp7127
aa(lp7128
S'si_r-sn_a-ge'
p7129
ag3
(g7
S'n`\xa4\xc2\x97J\xfd?'
p7130
tp7131
Rp7132
aa(lp7133
S'si_r-sn_a-gesn'
p7134
ag3
(g7
S'/\x1b\xdd\xf0\xf9\xff\x1f@'
p7135
tp7136
Rp7137
aa(lp7138
S'si_r-sn_a-si'
p7139
ag3
(g7
S'\xf1Q\xcb\xb6\xad\xb2\xfc?'
p7140
tp7141
Rp7142
aa(lp7143
S'si_r-sn_a-sic'
p7144
ag3
(g7
S'\xd8L\x1ec\x0b\x00 @'
p7145
tp7146
Rp7147
aa(lp7148
S'si_r-sn_a-sige'
p7149
ag3
(g7
S'\x92\x13<DH~\xfd?'
p7150
tp7151
Rp7152
aa(lp7153
S'si_r-sn_a-sn'
p7154
ag3
(g7
S'\x00\x00\x00\x00\x00\x00\x00\x00'
p7155
tp7156
Rp7157
aa(lp7158
S'si_r-sn_a-snsi'
p7159
ag3
(g7
S'\x16\r\x07\x1b\xe9\xff\x1f@'
p7160
tp7161
Rp7162
aa(lp7163
S'si_r-snsi_a-c'
p7164
ag3
(g7
S'\xa37k\\\xf5\xff\x1f@'
p7165
tp7166
Rp7167
aa(lp7168
S'si_r-snsi_a-cge'
p7169
ag3
(g7
S'uR|>\x04<\xf3?'
p7170
tp7171
Rp7172
aa(lp7173
S'si_r-snsi_a-ge'
p7174
ag3
(g7
S'4\x11\xfc\xc5\x08\x00 @'
p7175
tp7176
Rp7177
aa(lp7178
S'si_r-snsi_a-gesn'
p7179
ag3
(g7
S'\x00\x00\x00\x00\x00\x00\x00\x00'
p7180
tp7181
Rp7182
aa(lp7183
S'si_r-snsi_a-si'
p7184
ag3
(g7
S'9\xde\x83\n\xed\xff\x1f@'
p7185
tp7186
Rp7187
aa(lp7188
S'si_r-snsi_a-sic'
p7189
ag3
(g7
S'\xd8L\x1ec\x0b\x00 @'
p7190
tp7191
Rp7192
aa(lp7193
S'si_r-snsi_a-sige'
p7194
ag3
(g7
S'\x13\xbcl\xdc\xff\xff\x1f@'
p7195
tp7196
Rp7197
aa(lp7198
S'si_r-snsi_a-sn'
p7199
ag3
(g7
S'\xf6yK\xe2\xfa\xff\x1f@'
p7200
tp7201
Rp7202
aa(lp7203
S'si_r-snsi_a-snsi'
p7204
ag3
(g7
S'\x16\r\x07\x1b\xe9\xff\x1f@'
p7205
tp7206
Rp7207
aa(lp7208
S'sic_r-c_a-c'
p7209
ag3
(g7
S'\xe4m\x83j\x06\x8d\t@'
p7210
tp7211
Rp7212
aa(lp7213
S'sic_r-c_a-cge'
p7214
ag3
(g7
S'e\x13\xee\x92K~\x07@'
p7215
tp7216
Rp7217
aa(lp7218
S'sic_r-c_a-ge'
p7219
ag3
(g7
S'V\xc4ug\xe1\x8f\x07@'
p7220
tp7221
Rp7222
aa(lp7223
S'sic_r-c_a-gesn'
p7224
ag3
(g7
S'2\xb0\x9c\xee\xec\x01 @'
p7225
tp7226
Rp7227
aa(lp7228
S'sic_r-c_a-si'
p7229
ag3
(g7
S'\xc1\xe8D\x87$\x96\x07@'
p7230
tp7231
Rp7232
aa(lp7233
S'sic_r-c_a-sic'
p7234
ag3
(g7
S'\x80\xf36\x1b\xcf\x83\x08@'
p7235
tp7236
Rp7237
aa(lp7238
S'sic_r-c_a-sige'
p7239
ag3
(g7
S'\xd4\xe9\xf8\x91\xc0\x97\x07@'
p7240
tp7241
Rp7242
aa(lp7243
S'sic_r-c_a-sn'
p7244
ag3
(g7
S'\x00\x00\x00\x00\x00\x00\x00\x00'
p7245
tp7246
Rp7247
aa(lp7248
S'sic_r-c_a-snsi'
p7249
ag3
(g7
S'p\xad\x0c\xc8p\x01 @'
p7250
tp7251
Rp7252
aa(lp7253
S'sic_r-cge_a-c'
p7254
ag3
(g7
S'\x965\x1b\xe8\x99\n\x16@'
p7255
tp7256
Rp7257
aa(lp7258
S'sic_r-cge_a-cge'
p7259
ag3
(g7
S'\xbb\x17b\x84uQ\x0e@'
p7260
tp7261
Rp7262
aa(lp7263
S'sic_r-cge_a-ge'
p7264
ag3
(g7
S'\x86\x94\xc6b\xfc\xd3\r@'
p7265
tp7266
Rp7267
aa(lp7268
S'sic_r-cge_a-gesn'
p7269
ag3
(g7
S'M\x1et\x8d\xfa\xff\x1f@'
p7270
tp7271
Rp7272
aa(lp7273
S'sic_r-cge_a-si'
p7274
ag3
(g7
S'n\xd6)\xff[*\x0f@'
p7275
tp7276
Rp7277
aa(lp7278
S'sic_r-cge_a-sic'
p7279
ag3
(g7
S'\xd7U\x8a\x10\x0f\xaa\x13@'
p7280
tp7281
Rp7282
aa(lp7283
S'sic_r-cge_a-sige'
p7284
ag3
(g7
S'\xe8\xc86\xdf%,\x0f@'
p7285
tp7286
Rp7287
aa(lp7288
S'sic_r-cge_a-sn'
p7289
ag3
(g7
S'\x00\x00\x00\x00\x00\x00\x00\x00'
p7290
tp7291
Rp7292
aa(lp7293
S'sic_r-cge_a-snsi'
p7294
ag3
(g7
S'\xf2\xd4\xedB\xe9\xff\x1f@'
p7295
tp7296
Rp7297
aa(lp7298
S'sic_r-ge_a-c'
p7299
ag3
(g7
S'\xbe:l\xa9\xafW\x0e@'
p7300
tp7301
Rp7302
aa(lp7303
S'sic_r-ge_a-cge'
p7304
ag3
(g7
S'G\x90?)\xfc\x18\t@'
p7305
tp7306
Rp7307
aa(lp7308
S'sic_r-ge_a-ge'
p7309
ag3
(g7
S'(\xc4a\x1f{\xf3\x08@'
p7310
tp7311
Rp7312
aa(lp7313
S'sic_r-ge_a-gesn'
p7314
ag3
(g7
S'hg\xf6\x99\xfb\xff\x1f@'
p7315
tp7316
Rp7317
aa(lp7318
S'sic_r-ge_a-si'
p7319
ag3
(g7
S'\x86]\x07/\x15/\t@'
p7320
tp7321
Rp7322
aa(lp7323
S'sic_r-ge_a-sic'
p7324
ag3
(g7
S'9H\xb5l+y\x0b@'
p7325
tp7326
Rp7327
aa(lp7328
S'sic_r-ge_a-sige'
p7329
ag3
(g7
S'\x19\x054\xd271\t@'
p7330
tp7331
Rp7332
aa(lp7333
S'sic_r-ge_a-sn'
p7334
ag3
(g7
S'\xb8U3\x97\x01\x00 @'
p7335
tp7336
Rp7337
aa(lp7338
S'sic_r-ge_a-snsi'
p7339
ag3
(g7
S'\x00\x00\x00\x00\x00\x00\x00\x00'
p7340
tp7341
Rp7342
aa(lp7343
S'sic_r-gesn_a-c'
p7344
ag3
(g7
S"\xb4\x93'y\x87\xdf\x14@"
p7345
tp7346
Rp7347
aa(lp7348
S'sic_r-gesn_a-cge'
p7349
ag3
(g7
S'Bg\xe6?\x8e\xb8\x10@'
p7350
tp7351
Rp7352
aa(lp7353
S'sic_r-gesn_a-ge'
p7354
ag3
(g7
S'\xa9Jf\xa1\x08\x00 @'
p7355
tp7356
Rp7357
aa(lp7358
S'sic_r-gesn_a-gesn'
p7359
ag3
(g7
S'\x00\x00\x00\x00\x00\x00\x00\x00'
p7360
tp7361
Rp7362
aa(lp7363
S'sic_r-gesn_a-si'
p7364
ag3
(g7
S'd\xb0j\xdc\x03\xd3\x10@'
p7365
tp7366
Rp7367
aa(lp7368
S'sic_r-gesn_a-sic'
p7369
ag3
(g7
S'P\x02Ku\x94\xa2\x12@'
p7370
tp7371
Rp7372
aa(lp7373
S'sic_r-gesn_a-sige'
p7374
ag3
(g7
S'\x85\xb7K\x0f/\xd3\x10@'
p7375
tp7376
Rp7377
aa(lp7378
S'sic_r-gesn_a-sn'
p7379
ag3
(g7
S'>P\xcf\x95\xfa\xff\x1f@'
p7380
tp7381
Rp7382
aa(lp7383
S'sic_r-gesn_a-snsi'
p7384
ag3
(g7
S'V\x94z\x14\xe9\xff\x1f@'
p7385
tp7386
Rp7387
aa(lp7388
S'sic_r-si_a-c'
p7389
ag3
(g7
S'\xaa(\x8c\x03\x17\x81\r@'
p7390
tp7391
Rp7392
aa(lp7393
S'sic_r-si_a-cge'
p7394
ag3
(g7
S'\xbc\xc9\xd1\xeeK\xa9\x08@'
p7395
tp7396
Rp7397
aa(lp7398
S'sic_r-si_a-ge'
p7399
ag3
(g7
S'X\x1f\xb4<*\x8c\x08@'
p7400
tp7401
Rp7402
aa(lp7403
S'sic_r-si_a-gesn'
p7404
ag3
(g7
S'\x00\x00\x00\x00\x00\x00\x00\x00'
p7405
tp7406
Rp7407
aa(lp7408
S'sic_r-si_a-si'
p7409
ag3
(g7
S'=\xda\x15"O\xd2\x08@'
p7410
tp7411
Rp7412
aa(lp7413
S'sic_r-si_a-sic'
p7414
ag3
(g7
S'\x11\x1a\xe7\xe8\xaf\xb4\n@'
p7415
tp7416
Rp7417
aa(lp7418
S'sic_r-si_a-sige'
p7419
ag3
(g7
S'x4\xb7\xc6\x15\xbb\x08@'
p7420
tp7421
Rp7422
aa(lp7423
S'sic_r-si_a-sn'
p7424
ag3
(g7
S'\x00\x00\x00\x00\x00\x00\x00\x00'
p7425
tp7426
Rp7427
aa(lp7428
S'sic_r-si_a-snsi'
p7429
ag3
(g7
S'\x16\r\x07\x1b\xe9\xff\x1f@'
p7430
tp7431
Rp7432
aa(lp7433
S'sic_r-sige_a-c'
p7434
ag3
(g7
S':\x0c\xf4@P$\x0e@'
p7435
tp7436
Rp7437
aa(lp7438
S'sic_r-sige_a-cge'
p7439
ag3
(g7
S'\x9b\xdez|8\xfb\x08@'
p7440
tp7441
Rp7442
aa(lp7443
S'sic_r-sige_a-ge'
p7444
ag3
(g7
S'\xb8\x9d\xd6\x13\xf5\xd7\x08@'
p7445
tp7446
Rp7447
aa(lp7448
S'sic_r-sige_a-gesn'
p7449
ag3
(g7
S'\x88\r\xe8\x84\xfa\xff\x1f@'
p7450
tp7451
Rp7452
aa(lp7453
S'sic_r-sige_a-si'
p7454
ag3
(g7
S'\x00\x84Y\x02W\x10\t@'
p7455
tp7456
Rp7457
aa(lp7458
S'sic_r-sige_a-sic'
p7459
ag3
(g7
S'~\xd0\xbd\xe4\xa08\x0b@'
p7460
tp7461
Rp7462
aa(lp7463
S'sic_r-sige_a-sige'
p7464
ag3
(g7
S"'6j`\x8a\x12\t@"
p7465
tp7466
Rp7467
aa(lp7468
S'sic_r-sige_a-sn'
p7469
ag3
(g7
S'\x00\x00\x00\x00\x00\x00\x00\x00'
p7470
tp7471
Rp7472
aa(lp7473
S'sic_r-sige_a-snsi'
p7474
ag3
(g7
S'\xa7\xce;C\xe9\xff\x1f@'
p7475
tp7476
Rp7477
aa(lp7478
S'sic_r-sn_a-c'
p7479
ag3
(g7
S'z\x18\x97,2\xd5\x15@'
p7480
tp7481
Rp7482
aa(lp7483
S'sic_r-sn_a-cge'
p7484
ag3
(g7
S'\xb0\xe0\x92=\xf3\xff\x1f@'
p7485
tp7486
Rp7487
aa(lp7488
S'sic_r-sn_a-ge'
p7489
ag3
(g7
S'T}\xec:c\xf7\x11@'
p7490
tp7491
Rp7492
aa(lp7493
S'sic_r-sn_a-gesn'
p7494
ag3
(g7
S'/\x1b\xdd\xf0\xf9\xff\x1f@'
p7495
tp7496
Rp7497
aa(lp7498
S'sic_r-sn_a-si'
p7499
ag3
(g7
S'c\xf0$\xfd\x8e\xcb\x11@'
p7500
tp7501
Rp7502
aa(lp7503
S'sic_r-sn_a-sic'
p7504
ag3
(g7
S'\xe0yq\x94\x0b\x00 @'
p7505
tp7506
Rp7507
aa(lp7508
S'sic_r-sn_a-sige'
p7509
ag3
(g7
S'\x95\x17\x8cdB\xcc\x11@'
p7510
tp7511
Rp7512
aa(lp7513
S'sic_r-sn_a-sn'
p7514
ag3
(g7
S'\x00\x00\x00\x00\x00\x00\x00\x00'
p7515
tp7516
Rp7517
aa(lp7518
S'sic_r-sn_a-snsi'
p7519
ag3
(g7
S'\x00\x00\x00\x00\x00\x00\x00\x00'
p7520
tp7521
Rp7522
aa(lp7523
S'sic_r-snsi_a-c'
p7524
ag3
(g7
S'\xff?9\x9e\xf5\xff\x1f@'
p7525
tp7526
Rp7527
aa(lp7528
S'sic_r-snsi_a-cge'
p7529
ag3
(g7
S'E=\x86\xd9\x81\xa6\x10@'
p7530
tp7531
Rp7532
aa(lp7533
S'sic_r-snsi_a-ge'
p7534
ag3
(g7
S'\xa9Jf\xa1\x08\x00 @'
p7535
tp7536
Rp7537
aa(lp7538
S'sic_r-snsi_a-gesn'
p7539
ag3
(g7
S'\x00\x00\x00\x00\x00\x00\x00\x00'
p7540
tp7541
Rp7542
aa(lp7543
S'sic_r-snsi_a-si'
p7544
ag3
(g7
S'A\x92\xd8\x99\xed\xff\x1f@'
p7545
tp7546
Rp7547
aa(lp7548
S'sic_r-snsi_a-sic'
p7549
ag3
(g7
S'\xe0yq\x94\x0b\x00 @'
p7550
tp7551
Rp7552
aa(lp7553
S'sic_r-snsi_a-sige'
p7554
ag3
(g7
S'\n@_\xea\xff\xff\x1f@'
p7555
tp7556
Rp7557
aa(lp7558
S'sic_r-snsi_a-sn'
p7559
ag3
(g7
S'\xf6yK\xe2\xfa\xff\x1f@'
p7560
tp7561
Rp7562
aa(lp7563
S'sic_r-snsi_a-snsi'
p7564
ag3
(g7
S'\x00\x00\x00\x00\x00\x00\x00\x00'
p7565
tp7566
Rp7567
aa(lp7568
S'sige_r-c_a-c'
p7569
ag3
(g7
S'\x0cz\x80!l\xcb\x11@'
p7570
tp7571
Rp7572
aa(lp7573
S'sige_r-c_a-cge'
p7574
ag3
(g7
S'\xa5Z\xee\xd0\xc1\x12\x15@'
p7575
tp7576
Rp7577
aa(lp7578
S'sige_r-c_a-ge'
p7579
ag3
(g7
S'c\xb0\xd6\x83qc\x15@'
p7580
tp7581
Rp7582
aa(lp7583
S'sige_r-c_a-gesn'
p7584
ag3
(g7
S'\xea9\xfc\xd6)\xb2\x15@'
p7585
tp7586
Rp7587
aa(lp7588
S'sige_r-c_a-si'
p7589
ag3
(g7
S'\ra\xfa[\x91\xcf\x14@'
p7590
tp7591
Rp7592
aa(lp7593
S'sige_r-c_a-sic'
p7594
ag3
(g7
S'\xe1y\xa3\xb1\xf9A\x12@'
p7595
tp7596
Rp7597
aa(lp7598
S'sige_r-c_a-sige'
p7599
ag3
(g7
S'\x1d{\xec_\xe5\xd0\x14@'
p7600
tp7601
Rp7602
aa(lp7603
S'sige_r-c_a-sn'
p7604
ag3
(g7
S'\x00\x00\x00\x00\x00\x00\x00\x00'
p7605
tp7606
Rp7607
aa(lp7608
S'sige_r-c_a-snsi'
p7609
ag3
(g7
S'\xa9\xf0\xa7\xfc\xdc\x93\x15@'
p7610
tp7611
Rp7612
aa(lp7613
S'sige_r-cge_a-c'
p7614
ag3
(g7
S'#\x94`\xcc\xc9\r\x0e@'
p7615
tp7616
Rp7617
aa(lp7618
S'sige_r-cge_a-cge'
p7619
ag3
(g7
S'\xcc\x92\xd1\xe5\x13\xb9\x08@'
p7620
tp7621
Rp7622
aa(lp7623
S'sige_r-cge_a-ge'
p7624
ag3
(g7
S'*\xb6\x87\r7\xa2\x08@'
p7625
tp7626
Rp7627
aa(lp7628
S'sige_r-cge_a-gesn'
p7629
ag3
(g7
S'`\xdbS$&B\x08@'
p7630
tp7631
Rp7632
aa(lp7633
S'sige_r-cge_a-si'
p7634
ag3
(g7
S'@\xcfd\x90|\xe4\x08@'
p7635
tp7636
Rp7637
aa(lp7638
S'sige_r-cge_a-sic'
p7639
ag3
(g7
S'2^>\xfe9\x19\x0b@'
p7640
tp7641
Rp7642
aa(lp7643
S'sige_r-cge_a-sige'
p7644
ag3
(g7
S'D\x00\xba\xb7\xac\xe5\x08@'
p7645
tp7646
Rp7647
aa(lp7648
S'sige_r-cge_a-sn'
p7649
ag3
(g7
S'\x00\x00\x00\x00\x00\x00\x00\x00'
p7650
tp7651
Rp7652
aa(lp7653
S'sige_r-cge_a-snsi'
p7654
ag3
(g7
S'+\xef\xf8\xe1\xcaX\x08@'
p7655
tp7656
Rp7657
aa(lp7658
S'sige_r-ge_a-c'
p7659
ag3
(g7
S'7\x07+g/\x1f\xcf?'
p7660
tp7661
Rp7662
aa(lp7663
S'sige_r-ge_a-cge'
p7664
ag3
(g7
S'\xb2\r\xb2gK\xe9\xc1?'
p7665
tp7666
Rp7667
aa(lp7668
S'sige_r-ge_a-ge'
p7669
ag3
(g7
S'\x8f?\xecN[\xff\xc9?'
p7670
tp7671
Rp7672
aa(lp7673
S'sige_r-ge_a-gesn'
p7674
ag3
(g7
S':#\xd1\xfa\xca=\xc2?'
p7675
tp7676
Rp7677
aa(lp7678
S'sige_r-ge_a-si'
p7679
ag3
(g7
S'\xc9\xf5\xe9\x01\xb1:\xc2?'
p7680
tp7681
Rp7682
aa(lp7683
S'sige_r-ge_a-sic'
p7684
ag3
(g7
S'\xd2z5PSQ\xc8?'
p7685
tp7686
Rp7687
aa(lp7688
S'sige_r-ge_a-sige'
p7689
ag3
(g7
S'Z\x7f\x18\xf2vE\xc2?'
p7690
tp7691
Rp7692
aa(lp7693
S'sige_r-ge_a-sn'
p7694
ag3
(g7
S'\xb8U3\x97\x01\x00 @'
p7695
tp7696
Rp7697
aa(lp7698
S'sige_r-ge_a-snsi'
p7699
ag3
(g7
S'\xa7\xce;C\xe9\xff\x1f@'
p7700
tp7701
Rp7702
aa(lp7703
S'sige_r-gesn_a-c'
p7704
ag3
(g7
S'\x96\xb8>\xbdk\x1c\xfb?'
p7705
tp7706
Rp7707
aa(lp7708
S'sige_r-gesn_a-cge'
p7709
ag3
(g7
S'\x1c\x17\xe9}Ac\xf3?'
p7710
tp7711
Rp7712
aa(lp7713
S'sige_r-gesn_a-ge'
p7714
ag3
(g7
S'U\x9f\x7f\x0e\t\x00 @'
p7715
tp7716
Rp7717
aa(lp7718
S'sige_r-gesn_a-gesn'
p7719
ag3
(g7
S'\x88\r\xe8\x84\xfa\xff\x1f@'
p7720
tp7721
Rp7722
aa(lp7723
S'sige_r-gesn_a-si'
p7724
ag3
(g7
S"'\x03\x03\xa3>\xbb\xf3?"
p7725
tp7726
Rp7727
aa(lp7728
S'sige_r-gesn_a-sic'
p7729
ag3
(g7
S'\xfa\xcc(\xcbG=\xf7?'
p7730
tp7731
Rp7732
aa(lp7733
S'sige_r-gesn_a-sige'
p7734
ag3
(g7
S'^\xce\xee\x89\xc8\xb5\xf3?'
p7735
tp7736
Rp7737
aa(lp7738
S'sige_r-gesn_a-sn'
p7739
ag3
(g7
S'>P\xcf\x95\xfa\xff\x1f@'
p7740
tp7741
Rp7742
aa(lp7743
S'sige_r-gesn_a-snsi'
p7744
ag3
(g7
S'\x021;\xec\xcf\xcb\xf2?'
p7745
tp7746
Rp7747
aa(lp7748
S'sige_r-si_a-c'
p7749
ag3
(g7
S'\xea"\xf6\x86\xa9#\xd0?'
p7750
tp7751
Rp7752
aa(lp7753
S'sige_r-si_a-cge'
p7754
ag3
(g7
S'X\xf9\xe6R \x87\xc3?'
p7755
tp7756
Rp7757
aa(lp7758
S'sige_r-si_a-ge'
p7759
ag3
(g7
S' \xcd\xd0J)_\xc3?'
p7760
tp7761
Rp7762
aa(lp7763
S'sige_r-si_a-gesn'
p7764
ag3
(g7
S'\x88\r\xe8\x84\xfa\xff\x1f@'
p7765
tp7766
Rp7767
aa(lp7768
S'sige_r-si_a-si'
p7769
ag3
(g7
S'\x95\xea\x04\x12m\xbd\xc0?'
p7770
tp7771
Rp7772
aa(lp7773
S'sige_r-si_a-sic'
p7774
ag3
(g7
S')\xe7h\xe0"i\xc9?'
p7775
tp7776
Rp7777
aa(lp7778
S'sige_r-si_a-sige'
p7779
ag3
(g7
S'H\x143\x02E\xd3\xc3?'
p7780
tp7781
Rp7782
aa(lp7783
S'sige_r-si_a-sn'
p7784
ag3
(g7
S'\x00\x00\x00\x00\x00\x00\x00\x00'
p7785
tp7786
Rp7787
aa(lp7788
S'sige_r-si_a-snsi'
p7789
ag3
(g7
S'\x83~\xa6\x08m\xd2\xc3?'
p7790
tp7791
Rp7792
aa(lp7793
S'sige_r-sic_a-c'
p7794
ag3
(g7
S':\x0c\xf4@P$\x0e@'
p7795
tp7796
Rp7797
aa(lp7798
S'sige_r-sic_a-cge'
p7799
ag3
(g7
S'\x9b\xdez|8\xfb\x08@'
p7800
tp7801
Rp7802
aa(lp7803
S'sige_r-sic_a-ge'
p7804
ag3
(g7
S'\xb8\x9d\xd6\x13\xf5\xd7\x08@'
p7805
tp7806
Rp7807
aa(lp7808
S'sige_r-sic_a-gesn'
p7809
ag3
(g7
S'\x88\r\xe8\x84\xfa\xff\x1f@'
p7810
tp7811
Rp7812
aa(lp7813
S'sige_r-sic_a-si'
p7814
ag3
(g7
S'\x00\x84Y\x02W\x10\t@'
p7815
tp7816
Rp7817
aa(lp7818
S'sige_r-sic_a-sic'
p7819
ag3
(g7
S'~\xd0\xbd\xe4\xa08\x0b@'
p7820
tp7821
Rp7822
aa(lp7823
S'sige_r-sic_a-sige'
p7824
ag3
(g7
S"'6j`\x8a\x12\t@"
p7825
tp7826
Rp7827
aa(lp7828
S'sige_r-sic_a-sn'
p7829
ag3
(g7
S'\x00\x00\x00\x00\x00\x00\x00\x00'
p7830
tp7831
Rp7832
aa(lp7833
S'sige_r-sic_a-snsi'
p7834
ag3
(g7
S'\xa7\xce;C\xe9\xff\x1f@'
p7835
tp7836
Rp7837
aa(lp7838
S'sige_r-sn_a-c'
p7839
ag3
(g7
S'\x83lJ*C0\x04@'
p7840
tp7841
Rp7842
aa(lp7843
S'sige_r-sn_a-cge'
p7844
ag3
(g7
S'\xa5^W\xbf\xf2\xff\x1f@'
p7845
tp7846
Rp7847
aa(lp7848
S'sige_r-sn_a-ge'
p7849
ag3
(g7
S'\xbf\xaat\x90\xc5\x9f\xfc?'
p7850
tp7851
Rp7852
aa(lp7853
S'sige_r-sn_a-gesn'
p7854
ag3
(g7
S'\x98\x04\xeaHb\x91\xfd?'
p7855
tp7856
Rp7857
aa(lp7858
S'sige_r-sn_a-si'
p7859
ag3
(g7
S'\xe8\xa6R\x00\x11\x84\xfc?'
p7860
tp7861
Rp7862
aa(lp7863
S'sige_r-sn_a-sic'
p7864
ag3
(g7
S'\xe8a\xf1}\x0b\x00 @'
p7865
tp7866
Rp7867
aa(lp7868
S'sige_r-sn_a-sige'
p7869
ag3
(g7
S'&\x7f\xac\xe7\xc2\x82\xfc?'
p7870
tp7871
Rp7872
aa(lp7873
S'sige_r-sn_a-sn'
p7874
ag3
(g7
S'\x00\x00\x00\x00\x00\x00\x00\x00'
p7875
tp7876
Rp7877
aa(lp7878
S'sige_r-sn_a-snsi'
p7879
ag3
(g7
S'\xa7\xce;C\xe9\xff\x1f@'
p7880
tp7881
Rp7882
aa(lp7883
S'sige_r-snsi_a-c'
p7884
ag3
(g7
S'\xc6"\xe1d\xf5\xff\x1f@'
p7885
tp7886
Rp7887
aa(lp7888
S'sige_r-snsi_a-cge'
p7889
ag3
(g7
S'd\x12hl\x15\x8a\xf2?'
p7890
tp7891
Rp7892
aa(lp7893
S'sige_r-snsi_a-ge'
p7894
ag3
(g7
S'U\x9f\x7f\x0e\t\x00 @'
p7895
tp7896
Rp7897
aa(lp7898
S'sige_r-snsi_a-gesn'
p7899
ag3
(g7
S'\x88\r\xe8\x84\xfa\xff\x1f@'
p7900
tp7901
Rp7902
aa(lp7903
S'sige_r-snsi_a-si'
p7904
ag3
(g7
S'*\xfcD8\xed\xff\x1f@'
p7905
tp7906
Rp7907
aa(lp7908
S'sige_r-snsi_a-sic'
p7909
ag3
(g7
S'\xe8a\xf1}\x0b\x00 @'
p7910
tp7911
Rp7912
aa(lp7913
S'sige_r-snsi_a-sige'
p7914
ag3
(g7
S'=\xbc\x7f\xf7\xff\xff\x1f@'
p7915
tp7916
Rp7917
aa(lp7918
S'sige_r-snsi_a-sn'
p7919
ag3
(g7
S'\xf6yK\xe2\xfa\xff\x1f@'
p7920
tp7921
Rp7922
aa(lp7923
S'sige_r-snsi_a-snsi'
p7924
ag3
(g7
S'\xa7\xce;C\xe9\xff\x1f@'
p7925
tp7926
Rp7927
aa(lp7928
S'sn_r-c_a-c'
p7929
ag3
(g7
S'\xb3i\xf6\xaeo\xe2\x1a@'
p7930
tp7931
Rp7932
aa(lp7933
S'sn_r-c_a-cge'
p7934
ag3
(g7
S'\x06\x0fq\xdbf\x00 @'
p7935
tp7936
Rp7937
aa(lp7938
S'sn_r-c_a-ge'
p7939
ag3
(g7
S'\x8dM\xaf\xfb\xaa\xc0\x1b@'
p7940
tp7941
Rp7942
aa(lp7943
S'sn_r-c_a-gesn'
p7944
ag3
(g7
S'\n\x12.\xea\xedV\x1c@'
p7945
tp7946
Rp7947
aa(lp7948
S'sn_r-c_a-si'
p7949
ag3
(g7
S'N\x98#\xa5Y\x16\x1b@'
p7950
tp7951
Rp7952
aa(lp7953
S'sn_r-c_a-sic'
p7954
ag3
(g7
S'\xdc\xcd\xc6q\x0b\x00 @'
p7955
tp7956
Rp7957
aa(lp7958
S'sn_r-c_a-sige'
p7959
ag3
(g7
S'\xb5WaS\x92\x17\x1b@'
p7960
tp7961
Rp7962
aa(lp7963
S'sn_r-c_a-sn'
p7964
ag3
(g7
S'\x00\x00\x00\x00\x00\x00\x00\x00'
p7965
tp7966
Rp7967
aa(lp7968
S'sn_r-c_a-snsi'
p7969
ag3
(g7
S'p\xad\x0c\xc8p\x01 @'
p7970
tp7971
Rp7972
aa(lp7973
S'sn_r-cge_a-c'
p7974
ag3
(g7
S'\x08\t\x93\xfd{r\x15@'
p7975
tp7976
Rp7977
aa(lp7978
S'sn_r-cge_a-cge'
p7979
ag3
(g7
S'\x96\xb5A\x1f\xf3\xff\x1f@'
p7980
tp7981
Rp7982
aa(lp7983
S'sn_r-cge_a-ge'
p7984
ag3
(g7
S'o\x9e\xe9\xfd?\x07\x12@'
p7985
tp7986
Rp7987
aa(lp7988
S'sn_r-cge_a-gesn'
p7989
ag3
(g7
S'\xc3\x1b\xb53\xd0u\x12@'
p7990
tp7991
Rp7992
aa(lp7993
S'sn_r-cge_a-si'
p7994
ag3
(g7
S'\x03\xd2!\xae\x9a\xd3\x11@'
p7995
tp7996
Rp7997
aa(lp7998
S'sn_r-cge_a-sic'
p7999
ag3
(g7
S'\xb8\x8b\xfeR\x0b\x00 @'
p8000
tp8001
Rp8002
aa(lp8003
S'sn_r-cge_a-sige'
p8004
ag3
(g7
S'\x947\x86\xa9T\xd4\x11@'
p8005
tp8006
Rp8007
aa(lp8008
S'sn_r-cge_a-sn'
p8009
ag3
(g7
S'\x00\x00\x00\x00\x00\x00\x00\x00'
p8010
tp8011
Rp8012
aa(lp8013
S'sn_r-cge_a-snsi'
p8014
ag3
(g7
S'\xf2\xd4\xedB\xe9\xff\x1f@'
p8015
tp8016
Rp8017
aa(lp8018
S'sn_r-ge_a-c'
p8019
ag3
(g7
S'\xf8m8\xd3\xe7J\x03@'
p8020
tp8021
Rp8022
aa(lp8023
S'sn_r-ge_a-cge'
p8024
ag3
(g7
S'\x91\x84A\x91\xf3\xff\x1f@'
p8025
tp8026
Rp8027
aa(lp8028
S'sn_r-ge_a-ge'
p8029
ag3
(g7
S'\xc4Y\xba\xdfr\x12\xfc?'
p8030
tp8031
Rp8032
aa(lp8033
S'sn_r-ge_a-gesn'
p8034
ag3
(g7
S'\xfb\xf5L\x0e\xder\xfd?'
p8035
tp8036
Rp8037
aa(lp8038
S'sn_r-ge_a-si'
p8039
ag3
(g7
S'+4\xc4\xce\xfd\xc1\xfb?'
p8040
tp8041
Rp8042
aa(lp8043
S'sn_r-ge_a-sic'
p8044
ag3
(g7
S'\xce\x9b1\x82\x0b\x00 @'
p8045
tp8046
Rp8047
aa(lp8048
S'sn_r-ge_a-sige'
p8049
ag3
(g7
S'[\xa3O)r\xbf\xfb?'
p8050
tp8051
Rp8052
aa(lp8053
S'sn_r-ge_a-sn'
p8054
ag3
(g7
S'\xb8U3\x97\x01\x00 @'
p8055
tp8056
Rp8057
aa(lp8058
S'sn_r-ge_a-snsi'
p8059
ag3
(g7
S'\x00\x00\x00\x00\x00\x00\x00\x00'
p8060
tp8061
Rp8062
aa(lp8063
S'sn_r-gesn_a-c'
p8064
ag3
(g7
S'\x8a0\xb4\xd2#r\xfc?'
p8065
tp8066
Rp8067
aa(lp8068
S'sn_r-gesn_a-cge'
p8069
ag3
(g7
S'[vz\x9d\xf2\xff\x1f@'
p8070
tp8071
Rp8072
aa(lp8073
S'sn_r-gesn_a-ge'
p8074
ag3
(g7
S'`V\xef\x99\x08\x00 @'
p8075
tp8076
Rp8077
aa(lp8078
S'sn_r-gesn_a-gesn'
p8079
ag3
(g7
S'/\x1b\xdd\xf0\xf9\xff\x1f@'
p8080
tp8081
Rp8082
aa(lp8083
S'sn_r-gesn_a-si'
p8084
ag3
(g7
S'\x94\xc3\xff\x02\x12\xd0\xf3?'
p8085
tp8086
Rp8087
aa(lp8088
S'sn_r-gesn_a-sic'
p8089
ag3
(g7
S'\xf8\x9f\x17b\x0b\x00 @'
p8090
tp8091
Rp8092
aa(lp8093
S'sn_r-gesn_a-sige'
p8094
ag3
(g7
S'0\x9f;\xb6\xd0\xcb\xf3?'
p8095
tp8096
Rp8097
aa(lp8098
S'sn_r-gesn_a-sn'
p8099
ag3
(g7
S'>P\xcf\x95\xfa\xff\x1f@'
p8100
tp8101
Rp8102
aa(lp8103
S'sn_r-gesn_a-snsi'
p8104
ag3
(g7
S'V\x94z\x14\xe9\xff\x1f@'
p8105
tp8106
Rp8107
aa(lp8108
S'sn_r-si_a-c'
p8109
ag3
(g7
S'`\x08\xfbh\xba\xc7\x04@'
p8110
tp8111
Rp8112
aa(lp8113
S'sn_r-si_a-cge'
p8114
ag3
(g7
S'\x99\xb8a\xac\xf3\xff\x1f@'
p8115
tp8116
Rp8117
aa(lp8118
S'sn_r-si_a-ge'
p8119
ag3
(g7
S'n`\xa4\xc2\x97J\xfd?'
p8120
tp8121
Rp8122
aa(lp8123
S'sn_r-si_a-gesn'
p8124
ag3
(g7
S'/\x1b\xdd\xf0\xf9\xff\x1f@'
p8125
tp8126
Rp8127
aa(lp8128
S'sn_r-si_a-si'
p8129
ag3
(g7
S'\xf1Q\xcb\xb6\xad\xb2\xfc?'
p8130
tp8131
Rp8132
aa(lp8133
S'sn_r-si_a-sic'
p8134
ag3
(g7
S'\xd8L\x1ec\x0b\x00 @'
p8135
tp8136
Rp8137
aa(lp8138
S'sn_r-si_a-sige'
p8139
ag3
(g7
S'\x92\x13<DH~\xfd?'
p8140
tp8141
Rp8142
aa(lp8143
S'sn_r-si_a-sn'
p8144
ag3
(g7
S'\x00\x00\x00\x00\x00\x00\x00\x00'
p8145
tp8146
Rp8147
aa(lp8148
S'sn_r-si_a-snsi'
p8149
ag3
(g7
S'\x16\r\x07\x1b\xe9\xff\x1f@'
p8150
tp8151
Rp8152
aa(lp8153
S'sn_r-sic_a-c'
p8154
ag3
(g7
S'z\x18\x97,2\xd5\x15@'
p8155
tp8156
Rp8157
aa(lp8158
S'sn_r-sic_a-cge'
p8159
ag3
(g7
S'\xb0\xe0\x92=\xf3\xff\x1f@'
p8160
tp8161
Rp8162
aa(lp8163
S'sn_r-sic_a-ge'
p8164
ag3
(g7
S'T}\xec:c\xf7\x11@'
p8165
tp8166
Rp8167
aa(lp8168
S'sn_r-sic_a-gesn'
p8169
ag3
(g7
S'/\x1b\xdd\xf0\xf9\xff\x1f@'
p8170
tp8171
Rp8172
aa(lp8173
S'sn_r-sic_a-si'
p8174
ag3
(g7
S'c\xf0$\xfd\x8e\xcb\x11@'
p8175
tp8176
Rp8177
aa(lp8178
S'sn_r-sic_a-sic'
p8179
ag3
(g7
S'\xe0yq\x94\x0b\x00 @'
p8180
tp8181
Rp8182
aa(lp8183
S'sn_r-sic_a-sige'
p8184
ag3
(g7
S'\x95\x17\x8cdB\xcc\x11@'
p8185
tp8186
Rp8187
aa(lp8188
S'sn_r-sic_a-sn'
p8189
ag3
(g7
S'\x00\x00\x00\x00\x00\x00\x00\x00'
p8190
tp8191
Rp8192
aa(lp8193
S'sn_r-sic_a-snsi'
p8194
ag3
(g7
S'\x00\x00\x00\x00\x00\x00\x00\x00'
p8195
tp8196
Rp8197
aa(lp8198
S'sn_r-sige_a-c'
p8199
ag3
(g7
S'\x83lJ*C0\x04@'
p8200
tp8201
Rp8202
aa(lp8203
S'sn_r-sige_a-cge'
p8204
ag3
(g7
S'\xa5^W\xbf\xf2\xff\x1f@'
p8205
tp8206
Rp8207
aa(lp8208
S'sn_r-sige_a-ge'
p8209
ag3
(g7
S'\xbf\xaat\x90\xc5\x9f\xfc?'
p8210
tp8211
Rp8212
aa(lp8213
S'sn_r-sige_a-gesn'
p8214
ag3
(g7
S'\x98\x04\xeaHb\x91\xfd?'
p8215
tp8216
Rp8217
aa(lp8218
S'sn_r-sige_a-si'
p8219
ag3
(g7
S'\xe8\xa6R\x00\x11\x84\xfc?'
p8220
tp8221
Rp8222
aa(lp8223
S'sn_r-sige_a-sic'
p8224
ag3
(g7
S'\xe8a\xf1}\x0b\x00 @'
p8225
tp8226
Rp8227
aa(lp8228
S'sn_r-sige_a-sige'
p8229
ag3
(g7
S'&\x7f\xac\xe7\xc2\x82\xfc?'
p8230
tp8231
Rp8232
aa(lp8233
S'sn_r-sige_a-sn'
p8234
ag3
(g7
S'\x00\x00\x00\x00\x00\x00\x00\x00'
p8235
tp8236
Rp8237
aa(lp8238
S'sn_r-sige_a-snsi'
p8239
ag3
(g7
S'\xa7\xce;C\xe9\xff\x1f@'
p8240
tp8241
Rp8242
aa(lp8243
S'sn_r-snsi_a-c'
p8244
ag3
(g7
S'\xa8\n0z\xf5\xff\x1f@'
p8245
tp8246
Rp8247
aa(lp8248
S'sn_r-snsi_a-cge'
p8249
ag3
(g7
S'\xbfm\xba\xec\xf2\xff\x1f@'
p8250
tp8251
Rp8252
aa(lp8253
S'sn_r-snsi_a-ge'
p8254
ag3
(g7
S'`V\xef\x99\x08\x00 @'
p8255
tp8256
Rp8257
aa(lp8258
S'sn_r-snsi_a-gesn'
p8259
ag3
(g7
S'/\x1b\xdd\xf0\xf9\xff\x1f@'
p8260
tp8261
Rp8262
aa(lp8263
S'sn_r-snsi_a-si'
p8264
ag3
(g7
S'\x83\xee[z\xed\xff\x1f@'
p8265
tp8266
Rp8267
aa(lp8268
S'sn_r-snsi_a-sic'
p8269
ag3
(g7
S'\x00\x00\x00\x00\x00\x00\x00\x00'
p8270
tp8271
Rp8272
aa(lp8273
S'sn_r-snsi_a-sige'
p8274
ag3
(g7
S'\xeb\xa14\x01\xff\xff\x1f@'
p8275
tp8276
Rp8277
aa(lp8278
S'sn_r-snsi_a-sn'
p8279
ag3
(g7
S'\xf6yK\xe2\xfa\xff\x1f@'
p8280
tp8281
Rp8282
aa(lp8283
S'sn_r-snsi_a-snsi'
p8284
ag3
(g7
S'\x00\x00\x00\x00\x00\x00\x00\x00'
p8285
tp8286
Rp8287
aa(lp8288
S'snsi_r-c_a-c'
p8289
ag3
(g7
S'\x0f\x1f\xdaZ\xf5\xff\x1f@'
p8290
tp8291
Rp8292
aa(lp8293
S'snsi_r-c_a-cge'
p8294
ag3
(g7
S'+\xea\xc5]p!\x18@'
p8295
tp8296
Rp8297
aa(lp8298
S'snsi_r-c_a-ge'
p8299
ag3
(g7
S'\xca\x1f\x1c\x04\x98\x00 @'
p8300
tp8301
Rp8302
aa(lp8303
S'snsi_r-c_a-gesn'
p8304
ag3
(g7
S'2\xb0\x9c\xee\xec\x01 @'
p8305
tp8306
Rp8307
aa(lp8308
S'snsi_r-c_a-si'
p8309
ag3
(g7
S'%\x9a\x87<%\x00 @'
p8310
tp8311
Rp8312
aa(lp8313
S'snsi_r-c_a-sic'
p8314
ag3
(g7
S'\xdc\xcd\xc6q\x0b\x00 @'
p8315
tp8316
Rp8317
aa(lp8318
S'snsi_r-c_a-sige'
p8319
ag3
(g7
S"V'\x90\x9f.\x00 @"
p8320
tp8321
Rp8322
aa(lp8323
S'snsi_r-c_a-sn'
p8324
ag3
(g7
S'\xf6yK\xe2\xfa\xff\x1f@'
p8325
tp8326
Rp8327
aa(lp8328
S'snsi_r-c_a-snsi'
p8329
ag3
(g7
S'p\xad\x0c\xc8p\x01 @'
p8330
tp8331
Rp8332
aa(lp8333
S'snsi_r-cge_a-c'
p8334
ag3
(g7
S'\xd8a_b\xf5\xff\x1f@'
p8335
tp8336
Rp8337
aa(lp8338
S'snsi_r-cge_a-cge'
p8339
ag3
(g7
S'\xd15\x9a\xd7\xbd=\x0c@'
p8340
tp8341
Rp8342
aa(lp8343
S'snsi_r-cge_a-ge'
p8344
ag3
(g7
S'\xde\x1a\xd5\xbf\x08\x00 @'
p8345
tp8346
Rp8347
aa(lp8348
S'snsi_r-cge_a-gesn'
p8349
ag3
(g7
S'M\x1et\x8d\xfa\xff\x1f@'
p8350
tp8351
Rp8352
aa(lp8353
S'snsi_r-cge_a-si'
p8354
ag3
(g7
S'\x81\x0f\xb6\x08\xed\xff\x1f@'
p8355
tp8356
Rp8357
aa(lp8358
S'snsi_r-cge_a-sic'
p8359
ag3
(g7
S'\xb8\x8b\xfeR\x0b\x00 @'
p8360
tp8361
Rp8362
aa(lp8363
S'snsi_r-cge_a-sige'
p8364
ag3
(g7
S'\xb8q\x9f\xef\xff\xff\x1f@'
p8365
tp8366
Rp8367
aa(lp8368
S'snsi_r-cge_a-sn'
p8369
ag3
(g7
S'\xf6yK\xe2\xfa\xff\x1f@'
p8370
tp8371
Rp8372
aa(lp8373
S'snsi_r-cge_a-snsi'
p8374
ag3
(g7
S'\xf2\xd4\xedB\xe9\xff\x1f@'
p8375
tp8376
Rp8377
aa(lp8378
S'snsi_r-ge_a-c'
p8379
ag3
(g7
S'`A\xe05\xf5\xff\x1f@'
p8380
tp8381
Rp8382
aa(lp8383
S'snsi_r-ge_a-cge'
p8384
ag3
(g7
S'\xab\x03\x13\x80\x84\xb5\xf2?'
p8385
tp8386
Rp8387
aa(lp8388
S'snsi_r-ge_a-ge'
p8389
ag3
(g7
S'\xf8\xb8,\xfe\x08\x00 @'
p8390
tp8391
Rp8392
aa(lp8393
S'snsi_r-ge_a-gesn'
p8394
ag3
(g7
S'hg\xf6\x99\xfb\xff\x1f@'
p8395
tp8396
Rp8397
aa(lp8398
S'snsi_r-ge_a-si'
p8399
ag3
(g7
S'r-w6\xed\xff\x1f@'
p8400
tp8401
Rp8402
aa(lp8403
S'snsi_r-ge_a-sic'
p8404
ag3
(g7
S'\xce\x9b1\x82\x0b\x00 @'
p8405
tp8406
Rp8407
aa(lp8408
S'snsi_r-ge_a-sige'
p8409
ag3
(g7
S'YQ\xbf\x13\xff\xff\x1f@'
p8410
tp8411
Rp8412
aa(lp8413
S'snsi_r-ge_a-sn'
p8414
ag3
(g7
S'\xcc\xd8\x8f\xf8\xaeI\xf2?'
p8415
tp8416
Rp8417
aa(lp8418
S'snsi_r-ge_a-snsi'
p8419
ag3
(g7
S'\x00\x00\x00\x00\x00\x00\x00\x00'
p8420
tp8421
Rp8422
aa(lp8423
S'snsi_r-gesn_a-c'
p8424
ag3
(g7
S'\xda\xc1<\xa3\xf5\xff\x1f@'
p8425
tp8426
Rp8427
aa(lp8428
S'snsi_r-gesn_a-cge'
p8429
ag3
(g7
S'V\xd2\xbb\xc5\xc9\xe3\xc1?'
p8430
tp8431
Rp8432
aa(lp8433
S'snsi_r-gesn_a-ge'
p8434
ag3
(g7
S'\x00\x00\x00\x00\x00\x00\x00\x00'
p8435
tp8436
Rp8437
aa(lp8438
S'snsi_r-gesn_a-gesn'
p8439
ag3
(g7
S'\x00\x00\x00\x00\x00\x00\x00\x00'
p8440
tp8441
Rp8442
aa(lp8443
S'snsi_r-gesn_a-si'
p8444
ag3
(g7
S'*\xd0\xa8\x01\xed\xff\x1f@'
p8445
tp8446
Rp8447
aa(lp8448
S'snsi_r-gesn_a-sic'
p8449
ag3
(g7
S'\xf8\x9f\x17b\x0b\x00 @'
p8450
tp8451
Rp8452
aa(lp8453
S'snsi_r-gesn_a-sige'
p8454
ag3
(g7
S'B\x07\x19\x00\x00\x00 @'
p8455
tp8456
Rp8457
aa(lp8458
S'snsi_r-gesn_a-sn'
p8459
ag3
(g7
S'\xdf\x94\x85\xf5\xf2H\xc1?'
p8460
tp8461
Rp8462
aa(lp8463
S'snsi_r-gesn_a-snsi'
p8464
ag3
(g7
S'V\x94z\x14\xe9\xff\x1f@'
p8465
tp8466
Rp8467
aa(lp8468
S'snsi_r-si_a-c'
p8469
ag3
(g7
S'\xa37k\\\xf5\xff\x1f@'
p8470
tp8471
Rp8472
aa(lp8473
S'snsi_r-si_a-cge'
p8474
ag3
(g7
S'uR|>\x04<\xf3?'
p8475
tp8476
Rp8477
aa(lp8478
S'snsi_r-si_a-ge'
p8479
ag3
(g7
S'4\x11\xfc\xc5\x08\x00 @'
p8480
tp8481
Rp8482
aa(lp8483
S'snsi_r-si_a-gesn'
p8484
ag3
(g7
S'\x00\x00\x00\x00\x00\x00\x00\x00'
p8485
tp8486
Rp8487
aa(lp8488
S'snsi_r-si_a-si'
p8489
ag3
(g7
S'9\xde\x83\n\xed\xff\x1f@'
p8490
tp8491
Rp8492
aa(lp8493
S'snsi_r-si_a-sic'
p8494
ag3
(g7
S'\xd8L\x1ec\x0b\x00 @'
p8495
tp8496
Rp8497
aa(lp8498
S'snsi_r-si_a-sige'
p8499
ag3
(g7
S'\x13\xbcl\xdc\xff\xff\x1f@'
p8500
tp8501
Rp8502
aa(lp8503
S'snsi_r-si_a-sn'
p8504
ag3
(g7
S'\xf6yK\xe2\xfa\xff\x1f@'
p8505
tp8506
Rp8507
aa(lp8508
S'snsi_r-si_a-snsi'
p8509
ag3
(g7
S'\x16\r\x07\x1b\xe9\xff\x1f@'
p8510
tp8511
Rp8512
aa(lp8513
S'snsi_r-sic_a-c'
p8514
ag3
(g7
S'\xff?9\x9e\xf5\xff\x1f@'
p8515
tp8516
Rp8517
aa(lp8518
S'snsi_r-sic_a-cge'
p8519
ag3
(g7
S'E=\x86\xd9\x81\xa6\x10@'
p8520
tp8521
Rp8522
aa(lp8523
S'snsi_r-sic_a-ge'
p8524
ag3
(g7
S'\xa9Jf\xa1\x08\x00 @'
p8525
tp8526
Rp8527
aa(lp8528
S'snsi_r-sic_a-gesn'
p8529
ag3
(g7
S'\x00\x00\x00\x00\x00\x00\x00\x00'
p8530
tp8531
Rp8532
aa(lp8533
S'snsi_r-sic_a-si'
p8534
ag3
(g7
S'A\x92\xd8\x99\xed\xff\x1f@'
p8535
tp8536
Rp8537
aa(lp8538
S'snsi_r-sic_a-sic'
p8539
ag3
(g7
S'\xe0yq\x94\x0b\x00 @'
p8540
tp8541
Rp8542
aa(lp8543
S'snsi_r-sic_a-sige'
p8544
ag3
(g7
S'\n@_\xea\xff\xff\x1f@'
p8545
tp8546
Rp8547
aa(lp8548
S'snsi_r-sic_a-sn'
p8549
ag3
(g7
S'\xf6yK\xe2\xfa\xff\x1f@'
p8550
tp8551
Rp8552
aa(lp8553
S'snsi_r-sic_a-snsi'
p8554
ag3
(g7
S'\x00\x00\x00\x00\x00\x00\x00\x00'
p8555
tp8556
Rp8557
aa(lp8558
S'snsi_r-sige_a-c'
p8559
ag3
(g7
S'\xc6"\xe1d\xf5\xff\x1f@'
p8560
tp8561
Rp8562
aa(lp8563
S'snsi_r-sige_a-cge'
p8564
ag3
(g7
S'd\x12hl\x15\x8a\xf2?'
p8565
tp8566
Rp8567
aa(lp8568
S'snsi_r-sige_a-ge'
p8569
ag3
(g7
S'U\x9f\x7f\x0e\t\x00 @'
p8570
tp8571
Rp8572
aa(lp8573
S'snsi_r-sige_a-gesn'
p8574
ag3
(g7
S'\x88\r\xe8\x84\xfa\xff\x1f@'
p8575
tp8576
Rp8577
aa(lp8578
S'snsi_r-sige_a-si'
p8579
ag3
(g7
S'*\xfcD8\xed\xff\x1f@'
p8580
tp8581
Rp8582
aa(lp8583
S'snsi_r-sige_a-sic'
p8584
ag3
(g7
S'\xe8a\xf1}\x0b\x00 @'
p8585
tp8586
Rp8587
aa(lp8588
S'snsi_r-sige_a-sige'
p8589
ag3
(g7
S'=\xbc\x7f\xf7\xff\xff\x1f@'
p8590
tp8591
Rp8592
aa(lp8593
S'snsi_r-sige_a-sn'
p8594
ag3
(g7
S'\xf6yK\xe2\xfa\xff\x1f@'
p8595
tp8596
Rp8597
aa(lp8598
S'snsi_r-sige_a-snsi'
p8599
ag3
(g7
S'\xa7\xce;C\xe9\xff\x1f@'
p8600
tp8601
Rp8602
aa(lp8603
S'snsi_r-sn_a-c'
p8604
ag3
(g7
S'\xa8\n0z\xf5\xff\x1f@'
p8605
tp8606
Rp8607
aa(lp8608
S'snsi_r-sn_a-cge'
p8609
ag3
(g7
S'\xbfm\xba\xec\xf2\xff\x1f@'
p8610
tp8611
Rp8612
aa(lp8613
S'snsi_r-sn_a-ge'
p8614
ag3
(g7
S'`V\xef\x99\x08\x00 @'
p8615
tp8616
Rp8617
aa(lp8618
S'snsi_r-sn_a-gesn'
p8619
ag3
(g7
S'/\x1b\xdd\xf0\xf9\xff\x1f@'
p8620
tp8621
Rp8622
aa(lp8623
S'snsi_r-sn_a-si'
p8624
ag3
(g7
S'\x83\xee[z\xed\xff\x1f@'
p8625
tp8626
Rp8627
aa(lp8628
S'snsi_r-sn_a-sic'
p8629
ag3
(g7
S'\x00\x00\x00\x00\x00\x00\x00\x00'
p8630
tp8631
Rp8632
aa(lp8633
S'snsi_r-sn_a-sige'
p8634
ag3
(g7
S'\xeb\xa14\x01\xff\xff\x1f@'
p8635
tp8636
Rp8637
aa(lp8638
S'snsi_r-sn_a-sn'
p8639
ag3
(g7
S'\xf6yK\xe2\xfa\xff\x1f@'
p8640
tp8641
Rp8642
aa(lp8643
S'snsi_r-sn_a-snsi'
p8644
ag3
(g7
S'\x00\x00\x00\x00\x00\x00\x00\x00'
p8645
tp8646
Rp8647
aa(lp8648
S'zns_r-cds_a-cds'
p8649
ag3
(g7
S'f\xa9\xdf\x86E\xf6\x1a@'
p8650
tp8651
Rp8652
aa(lp8653
S'zns_r-cds_a-cdse'
p8654
ag3
(g7
S'\x15\xb6>\x8e\x08\xc4\x1a@'
p8655
tp8656
Rp8657
aa(lp8658
S'zns_r-cds_a-cdte'
p8659
ag3
(g7
S'B\xea\xb9m&\xd1\x1a@'
p8660
tp8661
Rp8662
aa(lp8663
S'zns_r-cds_a-hgs'
p8664
ag3
(g7
S'\x8ef}<L\xdc\x1a@'
p8665
tp8666
Rp8667
aa(lp8668
S'zns_r-cds_a-hgse'
p8669
ag3
(g7
S'\x13\xfd\x82\x01\xc6\xbb\x1a@'
p8670
tp8671
Rp8672
aa(lp8673
S'zns_r-cds_a-hgte'
p8674
ag3
(g7
S'\xc2\x8a#j\xfe\xce\x1a@'
p8675
tp8676
Rp8677
aa(lp8678
S'zns_r-cds_a-zns'
p8679
ag3
(g7
S'\xf6\xfcR\x1f\x04\xbc\x1a@'
p8680
tp8681
Rp8682
aa(lp8683
S'zns_r-cds_a-znse'
p8684
ag3
(g7
S'kk\xaf\xe7\x1a\xc4\x1a@'
p8685
tp8686
Rp8687
aa(lp8688
S'zns_r-cds_a-znte'
p8689
ag3
(g7
S'(\x15\xeafa\xe3\x1a@'
p8690
tp8691
Rp8692
aa(lp8693
S'zns_r-cdse_a-cds'
p8694
ag3
(g7
S'\xdc\xbf\x98\xd0\xd62\x1f@'
p8695
tp8696
Rp8697
aa(lp8698
S'zns_r-cdse_a-cdse'
p8699
ag3
(g7
S'\x9cADg!$\x1f@'
p8700
tp8701
Rp8702
aa(lp8703
S'zns_r-cdse_a-cdte'
p8704
ag3
(g7
S'\xab$\x9b\x1b\xae;\x1f@'
p8705
tp8706
Rp8707
aa(lp8708
S'zns_r-cdse_a-hgs'
p8709
ag3
(g7
S'g\xcc\x7fqt0\x1f@'
p8710
tp8711
Rp8712
aa(lp8713
S'zns_r-cdse_a-hgse'
p8714
ag3
(g7
S'\x08\x13YhT\x1c\x1f@'
p8715
tp8716
Rp8717
aa(lp8718
S'zns_r-cdse_a-hgte'
p8719
ag3
(g7
S'\x1f:*\x1c\xb46\x1f@'
p8720
tp8721
Rp8722
aa(lp8723
S'zns_r-cdse_a-zns'
p8724
ag3
(g7
S'%\xc2[\xc6\xd3\xe1\x1e@'
p8725
tp8726
Rp8727
aa(lp8728
S'zns_r-cdse_a-znse'
p8729
ag3
(g7
S'6\xceAS\xb0\xfe\x1e@'
p8730
tp8731
Rp8732
aa(lp8733
S'zns_r-cdse_a-znte'
p8734
ag3
(g7
S'\xf4\xc9\xcds\xe8@\x1f@'
p8735
tp8736
Rp8737
aa(lp8738
S'zns_r-cdte_a-cds'
p8739
ag3
(g7
S'\xa2\x94\xedf\xff\xc1#@'
p8740
tp8741
Rp8742
aa(lp8743
S'zns_r-cdte_a-cdse'
p8744
ag3
(g7
S'\xf6BTB?\xbb#@'
p8745
tp8746
Rp8747
aa(lp8748
S'zns_r-cdte_a-cdte'
p8749
ag3
(g7
S'\x15\xfb],\xaf\xbe#@'
p8750
tp8751
Rp8752
aa(lp8753
S'zns_r-cdte_a-hgs'
p8754
ag3
(g7
S'\xb0o\x05Z\x06\xc2#@'
p8755
tp8756
Rp8757
aa(lp8758
S'zns_r-cdte_a-hgse'
p8759
ag3
(g7
S'\xfd\xa4\xdd\xddL\xb7#@'
p8760
tp8761
Rp8762
aa(lp8763
S'zns_r-cdte_a-hgte'
p8764
ag3
(g7
S'\x12\x086\xf9\xb7\xbc#@'
p8765
tp8766
Rp8767
aa(lp8768
S'zns_r-cdte_a-zns'
p8769
ag3
(g7
S'\xe6\xa6 \xe7\xe2\x96#@'
p8770
tp8771
Rp8772
aa(lp8773
S'zns_r-cdte_a-znse'
p8774
ag3
(g7
S'{A\xbb\xbb\xf5\xaa#@'
p8775
tp8776
Rp8777
aa(lp8778
S'zns_r-cdte_a-znte'
p8779
ag3
(g7
S'\xce\x858LJ\xc9#@'
p8780
tp8781
Rp8782
aa(lp8783
S'zns_r-hgs_a-cds'
p8784
ag3
(g7
S'-\xee0;\xbbT"@'
p8785
tp8786
Rp8787
aa(lp8788
S'zns_r-hgs_a-cdse'
p8789
ag3
(g7
S'\xd4\xc9\x9c\x05WG"@'
p8790
tp8791
Rp8792
aa(lp8793
S'zns_r-hgs_a-cdte'
p8794
ag3
(g7
S'y\xa9\t\x1f\x88G"@'
p8795
tp8796
Rp8797
aa(lp8798
S'zns_r-hgs_a-hgs'
p8799
ag3
(g7
S'\xe6\x99\x8e\x95eI"@'
p8800
tp8801
Rp8802
aa(lp8803
S'zns_r-hgs_a-hgse'
p8804
ag3
(g7
S'\xc9X\xc6\xeb\x90@"@'
p8805
tp8806
Rp8807
aa(lp8808
S'zns_r-hgs_a-hgte'
p8809
ag3
(g7
S'\x1e+6\x03\x0fH"@'
p8810
tp8811
Rp8812
aa(lp8813
S'zns_r-hgs_a-zns'
p8814
ag3
(g7
S'\x8d\x8e\x9e\x11\xb0="@'
p8815
tp8816
Rp8817
aa(lp8818
S'zns_r-hgs_a-znse'
p8819
ag3
(g7
S'\x88+T\xf6)B"@'
p8820
tp8821
Rp8822
aa(lp8823
S'zns_r-hgs_a-znte'
p8824
ag3
(g7
S'\x00\xc2?\xfd\xbbU"@'
p8825
tp8826
Rp8827
aa(lp8828
S'zns_r-hgse_a-cds'
p8829
ag3
(g7
S'Rh1\xfc\xf2\x87$@'
p8830
tp8831
Rp8832
aa(lp8833
S'zns_r-hgse_a-cdse'
p8834
ag3
(g7
S'\xd9\rzN\xc0\x87$@'
p8835
tp8836
Rp8837
aa(lp8838
S'zns_r-hgse_a-cdte'
p8839
ag3
(g7
S'\x82(\x13c\x8d\x91$@'
p8840
tp8841
Rp8842
aa(lp8843
S'zns_r-hgse_a-hgs'
p8844
ag3
(g7
S'\xb0D\xbf\xe5\x03\x86$@'
p8845
tp8846
Rp8847
aa(lp8848
S'zns_r-hgse_a-hgse'
p8849
ag3
(g7
S'\xfdJ8\xea\x89\x83$@'
p8850
tp8851
Rp8852
aa(lp8853
S'zns_r-hgse_a-hgte'
p8854
ag3
(g7
S'\x83\xe0OM\xbd\x9d$@'
p8855
tp8856
Rp8857
aa(lp8858
S'zns_r-hgse_a-zns'
p8859
ag3
(g7
S'z\xa2\xaa\xd9\xe9X$@'
p8860
tp8861
Rp8862
aa(lp8863
S'zns_r-hgse_a-znse'
p8864
ag3
(g7
S'n$\x9b\xb5\xd1v$@'
p8865
tp8866
Rp8867
aa(lp8868
S'zns_r-hgse_a-znte'
p8869
ag3
(g7
S'\xfe\x95#@\x90\x9e$@'
p8870
tp8871
Rp8872
aa(lp8873
S'zns_r-hgte_a-cds'
p8874
ag3
(g7
S'\xc8\x8e\xfa\xb2\xea\xb7(@'
p8875
tp8876
Rp8877
aa(lp8878
S'zns_r-hgte_a-cdse'
p8879
ag3
(g7
S'\xd7\xf2\x90JE\xb1(@'
p8880
tp8881
Rp8882
aa(lp8883
S'zns_r-hgte_a-cdte'
p8884
ag3
(g7
S'\xd5Y\r@\xe2\xb8(@'
p8885
tp8886
Rp8887
aa(lp8888
S'zns_r-hgte_a-hgs'
p8889
ag3
(g7
S'^\xad\xde\xb5j\xb1(@'
p8890
tp8891
Rp8892
aa(lp8893
S'zns_r-hgte_a-hgse'
p8894
ag3
(g7
S'\xd5\x1b\t\x07\x8a\xae(@'
p8895
tp8896
Rp8897
aa(lp8898
S'zns_r-hgte_a-hgte'
p8899
ag3
(g7
S'\xfeb\xa9\xc3\xc3\xb8(@'
p8900
tp8901
Rp8902
aa(lp8903
S'zns_r-hgte_a-zns'
p8904
ag3
(g7
S'b\xf6\xa2\xef/\x80(@'
p8905
tp8906
Rp8907
aa(lp8908
S'zns_r-hgte_a-znse'
p8909
ag3
(g7
S'\xab\xb3$\x89\xda\xa3(@'
p8910
tp8911
Rp8912
aa(lp8913
S'zns_r-hgte_a-znte'
p8914
ag3
(g7
S'\x8a\xb9\xbcH;\xc2(@'
p8915
tp8916
Rp8917
aa(lp8918
S'zns_r-znse_a-cds'
p8919
ag3
(g7
S"\x9e\x11O\x83'\x92\xf3?"
p8920
tp8921
Rp8922
aa(lp8923
S'zns_r-znse_a-cdse'
p8924
ag3
(g7
S'\x19\xc9[O\x98\xdd\xf2?'
p8925
tp8926
Rp8927
aa(lp8928
S'zns_r-znse_a-cdte'
p8929
ag3
(g7
S'\x95\xfe\x0343\xe2\xf2?'
p8930
tp8931
Rp8932
aa(lp8933
S'zns_r-znse_a-hgs'
p8934
ag3
(g7
S'\xb0\xc6\xf1v\xb0\x86\xf3?'
p8935
tp8936
Rp8937
aa(lp8938
S'zns_r-znse_a-hgse'
p8939
ag3
(g7
S'0f\x8a\xaeN\x07\xf3?'
p8940
tp8941
Rp8942
aa(lp8943
S'zns_r-znse_a-hgte'
p8944
ag3
(g7
S'\x85R{\xf9\xe8\xed\xf2?'
p8945
tp8946
Rp8947
aa(lp8948
S'zns_r-znse_a-zns'
p8949
ag3
(g7
S'\t\xef\xf2\xe9\xcdC\xf3?'
p8950
tp8951
Rp8952
aa(lp8953
S'zns_r-znse_a-znse'
p8954
ag3
(g7
S'\x93\x12"tTF\xf3?'
p8955
tp8956
Rp8957
aa(lp8958
S'zns_r-znse_a-znte'
p8959
ag3
(g7
S'\xbb\xe3M\x01*j\xf3?'
p8960
tp8961
Rp8962
aa(lp8963
S'zns_r-znte_a-cds'
p8964
ag3
(g7
S'8\xf3\xcf\xdcr\xba\n@'
p8965
tp8966
Rp8967
aa(lp8968
S'zns_r-znte_a-cdse'
p8969
ag3
(g7
S'o\x1bON\x93;\n@'
p8970
tp8971
Rp8972
aa(lp8973
S'zns_r-znte_a-cdte'
p8974
ag3
(g7
S'\xd0\x8c>\x1c\x98Q\n@'
p8975
tp8976
Rp8977
aa(lp8978
S'zns_r-znte_a-hgs'
p8979
ag3
(g7
S'\xcf\x8b\xa6\xf0\x0b\x03\x0b@'
p8980
tp8981
Rp8982
aa(lp8983
S'zns_r-znte_a-hgse'
p8984
ag3
(g7
S'\xde\xf3\xbf\xff\xc0M\n@'
p8985
tp8986
Rp8987
aa(lp8988
S'zns_r-znte_a-hgte'
p8989
ag3
(g7
S'\x1b\xff<\xffA/\n@'
p8990
tp8991
Rp8992
aa(lp8993
S'zns_r-znte_a-zns'
p8994
ag3
(g7
S'\xa0w%V\x8b\xc8\n@'
p8995
tp8996
Rp8997
aa(lp8998
S'zns_r-znte_a-znse'
p8999
ag3
(g7
S'\xaa?\x04\xea\xfb\xd2\n@'
p9000
tp9001
Rp9002
aa(lp9003
S'zns_r-znte_a-znte'
p9004
ag3
(g7
S'g\xfa\x87\xee\xaf\xbf\n@'
p9005
tp9006
Rp9007
aa(lp9008
S'znse_r-cds_a-cds'
p9009
ag3
(g7
S'\xc8\xf3\xf3\x0f\xe2\xc3\x1b@'
p9010
tp9011
Rp9012
aa(lp9013
S'znse_r-cds_a-cdse'
p9014
ag3
(g7
S'jU\xc4%\xa5\xf6\x1b@'
p9015
tp9016
Rp9017
aa(lp9018
S'znse_r-cds_a-cdte'
p9019
ag3
(g7
S'e\x15.2<[\x1c@'
p9020
tp9021
Rp9022
aa(lp9023
S'znse_r-cds_a-hgs'
p9024
ag3
(g7
S'\x0e\xef\xc0\xea\xae\xca\x1b@'
p9025
tp9026
Rp9027
aa(lp9028
S'znse_r-cds_a-hgse'
p9029
ag3
(g7
S'L\x8aK*)\xed\x1b@'
p9030
tp9031
Rp9032
aa(lp9033
S'znse_r-cds_a-hgte'
p9034
ag3
(g7
S'\xb7u\xf6-gO\x1c@'
p9035
tp9036
Rp9037
aa(lp9038
S'znse_r-cds_a-zns'
p9039
ag3
(g7
S'2\x91V5\xad=\x1b@'
p9040
tp9041
Rp9042
aa(lp9043
S'znse_r-cds_a-znse'
p9044
ag3
(g7
S'\xd7\xf3\xbf[D\x92\x1b@'
p9045
tp9046
Rp9047
aa(lp9048
S'znse_r-cds_a-znte'
p9049
ag3
(g7
S'\xa6\xab\xc5x \x0b\x1c@'
p9050
tp9051
Rp9052
aa(lp9053
S'znse_r-cdse_a-cds'
p9054
ag3
(g7
S'\x1cM:\xe3^\xcd\x1a@'
p9055
tp9056
Rp9057
aa(lp9058
S'znse_r-cdse_a-cdse'
p9059
ag3
(g7
S'\x0e&`I\xd5\xc6\x1a@'
p9060
tp9061
Rp9062
aa(lp9063
S'znse_r-cdse_a-cdte'
p9064
ag3
(g7
S'}\xb9\x9c\x84v\xcb\x1a@'
p9065
tp9066
Rp9067
aa(lp9068
S'znse_r-cdse_a-hgs'
p9069
ag3
(g7
S'y\x1d\x86z\x8e\xc9\x1a@'
p9070
tp9071
Rp9072
aa(lp9073
S'znse_r-cdse_a-hgse'
p9074
ag3
(g7
S'\x8d\x7fg`~\xb4\x1a@'
p9075
tp9076
Rp9077
aa(lp9078
S'znse_r-cdse_a-hgte'
p9079
ag3
(g7
S'M\xf7H\xfd\x83\xc9\x1a@'
p9080
tp9081
Rp9082
aa(lp9083
S'znse_r-cdse_a-zns'
p9084
ag3
(g7
S'tR\xf3\xc1\xcf\xab\x1a@'
p9085
tp9086
Rp9087
aa(lp9088
S'znse_r-cdse_a-znse'
p9089
ag3
(g7
S'\x8b\xe0 \xeb\xbb\xbd\x1a@'
p9090
tp9091
Rp9092
aa(lp9093
S'znse_r-cdse_a-znte'
p9094
ag3
(g7
S'l\xd3\xb8hO\xc4\x1a@'
p9095
tp9096
Rp9097
aa(lp9098
S'znse_r-cdte_a-cds'
p9099
ag3
(g7
S'\xe6m\x0b=*[!@'
p9100
tp9101
Rp9102
aa(lp9103
S'znse_r-cdte_a-cdse'
p9104
ag3
(g7
S'L\xed\xe8b\x96i!@'
p9105
tp9106
Rp9107
aa(lp9108
S'znse_r-cdte_a-cdte'
p9109
ag3
(g7
S'\xf3\xb8\xc1\xbf\x98m!@'
p9110
tp9111
Rp9112
aa(lp9113
S'znse_r-cdte_a-hgs'
p9114
ag3
(g7
S'j\x7f\xb2\xaf\x98Y!@'
p9115
tp9116
Rp9117
aa(lp9118
S'znse_r-cdte_a-hgse'
p9119
ag3
(g7
S'r\xd7\x1d\xa8\x99`!@'
p9120
tp9121
Rp9122
aa(lp9123
S'znse_r-cdte_a-hgte'
p9124
ag3
(g7
S'\xd6\x8e\xdb\x0e9j!@'
p9125
tp9126
Rp9127
aa(lp9128
S'znse_r-cdte_a-zns'
p9129
ag3
(g7
S'\x17\xa9\xc5\xf1\xd85!@'
p9130
tp9131
Rp9132
aa(lp9133
S'znse_r-cdte_a-znse'
p9134
ag3
(g7
S'\xd4\xea#\x1cCI!@'
p9135
tp9136
Rp9137
aa(lp9138
S'znse_r-cdte_a-znte'
p9139
ag3
(g7
S'\xca\x93\xb7Q\x9ag!@'
p9140
tp9141
Rp9142
aa(lp9143
S'znse_r-hgs_a-cds'
p9144
ag3
(g7
S'\xd2\x7f\x82\x84\xa2\xbd"@'
p9145
tp9146
Rp9147
aa(lp9148
S'znse_r-hgs_a-cdse'
p9149
ag3
(g7
S'\x1c\xe0\xef\xc0\xe4\xfb"@'
p9150
tp9151
Rp9152
aa(lp9153
S'znse_r-hgs_a-cdte'
p9154
ag3
(g7
S'}9\x9d2CJ#@'
p9155
tp9156
Rp9157
aa(lp9158
S'znse_r-hgs_a-hgs'
p9159
ag3
(g7
S'\xb8\x8b\x7fHM\xc1"@'
p9160
tp9161
Rp9162
aa(lp9163
S'znse_r-hgs_a-hgse'
p9164
ag3
(g7
S'\xfc\n\xb9\xf2U\xf6"@'
p9165
tp9166
Rp9167
aa(lp9168
S'znse_r-hgs_a-hgte'
p9169
ag3
(g7
S'\xbeM\x0f\x12\x86B#@'
p9170
tp9171
Rp9172
aa(lp9173
S'znse_r-hgs_a-zns'
p9174
ag3
(g7
S'":\xb2\xe0\x9em"@'
p9175
tp9176
Rp9177
aa(lp9178
S'znse_r-hgs_a-znse'
p9179
ag3
(g7
S'\xd1\x087\xb6\xa9\x9f"@'
p9180
tp9181
Rp9182
aa(lp9183
S'znse_r-hgs_a-znte'
p9184
ag3
(g7
S'\xb3~\xa0\x02\xa6\x00#@'
p9185
tp9186
Rp9187
aa(lp9188
S'znse_r-hgse_a-cds'
p9189
ag3
(g7
S't=\x03\n2A"@'
p9190
tp9191
Rp9192
aa(lp9193
S'znse_r-hgse_a-cdse'
p9194
ag3
(g7
S'u}\x17\x9cMD"@'
p9195
tp9196
Rp9197
aa(lp9198
S'znse_r-hgse_a-cdte'
p9199
ag3
(g7
S'\x81\x81\xdb\x00\xfaF"@'
p9200
tp9201
Rp9202
aa(lp9203
S'znse_r-hgse_a-hgs'
p9204
ag3
(g7
S'[\xf7\xe9X\xdc>"@'
p9205
tp9206
Rp9207
aa(lp9208
S'znse_r-hgse_a-hgse'
p9209
ag3
(g7
S'\xac\x17\xe5\n\xb6:"@'
p9210
tp9211
Rp9212
aa(lp9213
S'znse_r-hgse_a-hgte'
p9214
ag3
(g7
S'\xc1*\xc8?\x96F"@'
p9215
tp9216
Rp9217
aa(lp9218
S'znse_r-hgse_a-zns'
p9219
ag3
(g7
S'cc\xa8?\xcb5"@'
p9220
tp9221
Rp9222
aa(lp9223
S'znse_r-hgse_a-znse'
p9224
ag3
(g7
S'\xe9\xe5U\x11\xd1="@'
p9225
tp9226
Rp9227
aa(lp9228
S'znse_r-hgse_a-znte'
p9229
ag3
(g7
S'eT\x04\xfb\x05D"@'
p9230
tp9231
Rp9232
aa(lp9233
S'znse_r-hgte_a-cds'
p9234
ag3
(g7
S'\xd2\x7fo\xa8\xfaP&@'
p9235
tp9236
Rp9237
aa(lp9238
S'znse_r-hgte_a-cdse'
p9239
ag3
(g7
S'\xfe\xeb\\)da&@'
p9240
tp9241
Rp9242
aa(lp9243
S'znse_r-hgte_a-cdte'
p9244
ag3
(g7
S'\xc6\xd2\x10\xe9:j&@'
p9245
tp9246
Rp9247
aa(lp9248
S'znse_r-hgte_a-hgs'
p9249
ag3
(g7
S'\x15\xa9\xa6\xdf+I&@'
p9250
tp9251
Rp9252
aa(lp9253
S'znse_r-hgte_a-hgse'
p9254
ag3
(g7
S'\x11<\xb2S\xa0Y&@'
p9255
tp9256
Rp9257
aa(lp9258
S'znse_r-hgte_a-hgte'
p9259
ag3
(g7
S'C\x99\xb6\x05\xc2h&@'
p9260
tp9261
Rp9262
aa(lp9263
S'znse_r-hgte_a-zns'
p9264
ag3
(g7
S'\xa7:\xeb\xb8$\x1e&@'
p9265
tp9266
Rp9267
aa(lp9268
S'znse_r-hgte_a-znse'
p9269
ag3
(g7
S'\x8c \x1eI\xefC&@'
p9270
tp9271
Rp9272
aa(lp9273
S'znse_r-hgte_a-znte'
p9274
ag3
(g7
S'\xa7\xa6?hYa&@'
p9275
tp9276
Rp9277
aa(lp9278
S'znse_r-zns_a-cds'
p9279
ag3
(g7
S"\x9e\x11O\x83'\x92\xf3?"
p9280
tp9281
Rp9282
aa(lp9283
S'znse_r-zns_a-cdse'
p9284
ag3
(g7
S'\x19\xc9[O\x98\xdd\xf2?'
p9285
tp9286
Rp9287
aa(lp9288
S'znse_r-zns_a-cdte'
p9289
ag3
(g7
S'\x95\xfe\x0343\xe2\xf2?'
p9290
tp9291
Rp9292
aa(lp9293
S'znse_r-zns_a-hgs'
p9294
ag3
(g7
S'\xb0\xc6\xf1v\xb0\x86\xf3?'
p9295
tp9296
Rp9297
aa(lp9298
S'znse_r-zns_a-hgse'
p9299
ag3
(g7
S'0f\x8a\xaeN\x07\xf3?'
p9300
tp9301
Rp9302
aa(lp9303
S'znse_r-zns_a-hgte'
p9304
ag3
(g7
S'\x85R{\xf9\xe8\xed\xf2?'
p9305
tp9306
Rp9307
aa(lp9308
S'znse_r-zns_a-zns'
p9309
ag3
(g7
S'\t\xef\xf2\xe9\xcdC\xf3?'
p9310
tp9311
Rp9312
aa(lp9313
S'znse_r-zns_a-znse'
p9314
ag3
(g7
S'\x93\x12"tTF\xf3?'
p9315
tp9316
Rp9317
aa(lp9318
S'znse_r-zns_a-znte'
p9319
ag3
(g7
S'\xbb\xe3M\x01*j\xf3?'
p9320
tp9321
Rp9322
aa(lp9323
S'znse_r-znte_a-cds'
p9324
ag3
(g7
S'r\xb1\xa4~65\x01@'
p9325
tp9326
Rp9327
aa(lp9328
S'znse_r-znte_a-cdse'
p9329
ag3
(g7
S')\xec\x1a\xbf\xdf\x0e\x01@'
p9330
tp9331
Rp9332
aa(lp9333
S'znse_r-znte_a-cdte'
p9334
ag3
(g7
S'\xaf\xf7m\xe19\x1e\x01@'
p9335
tp9336
Rp9337
aa(lp9338
S'znse_r-znte_a-hgs'
p9339
ag3
(g7
S'\xf6\xd7\xcdJ(}\x01@'
p9340
tp9341
Rp9342
aa(lp9343
S'znse_r-znte_a-hgse'
p9344
ag3
(g7
S'`\x1f]\x87\x12\x18\x01@'
p9345
tp9346
Rp9347
aa(lp9348
S'znse_r-znte_a-hgte'
p9349
ag3
(g7
S'Pd\x94\xac\xfe\xf5\x00@'
p9350
tp9351
Rp9352
aa(lp9353
S'znse_r-znte_a-zns'
p9354
ag3
(g7
S'\x88\xa7\xf1\xecsm\x01@'
p9355
tp9356
Rp9357
aa(lp9358
S'znse_r-znte_a-znse'
p9359
ag3
(g7
S'^e\xa09\ns\x01@'
p9360
tp9361
Rp9362
aa(lp9363
S'znse_r-znte_a-znte'
p9364
ag3
(g7
S'\x96\x10\x0e*\x96K\x01@'
p9365
tp9366
Rp9367
aa(lp9368
S'znte_r-cds_a-cds'
p9369
ag3
(g7
S'N<t";\xd4 @'
p9370
tp9371
Rp9372
aa(lp9373
S'znte_r-cds_a-cdse'
p9374
ag3
(g7
S'n\xa5\xc8\xcaW\x10!@'
p9375
tp9376
Rp9377
aa(lp9378
S'znte_r-cds_a-cdte'
p9379
ag3
(g7
S'\xa4,x\x9b*[!@'
p9380
tp9381
Rp9382
aa(lp9383
S'znte_r-cds_a-hgs'
p9384
ag3
(g7
S'v\xb4f\xa3+\xd7 @'
p9385
tp9386
Rp9387
aa(lp9388
S'znte_r-cds_a-hgse'
p9389
ag3
(g7
S'zwc`@\x12!@'
p9390
tp9391
Rp9392
aa(lp9393
S'znte_r-cds_a-hgte'
p9394
ag3
(g7
S'\xf1\xe1\xea\x14\xa0`!@'
p9395
tp9396
Rp9397
aa(lp9398
S'znte_r-cds_a-zns'
p9399
ag3
(g7
S'\xb0\x17\xbb,|U @'
p9400
tp9401
Rp9402
aa(lp9403
S'znte_r-cds_a-znse'
p9404
ag3
(g7
S'\x97\xd1\x1d\nT\xa9 @'
p9405
tp9406
Rp9407
aa(lp9408
S'znte_r-cds_a-znte'
p9409
ag3
(g7
S'\xc0\n\xa5"z\x10!@'
p9410
tp9411
Rp9412
aa(lp9413
S'znte_r-cdse_a-cds'
p9414
ag3
(g7
S'\xdfK\x9f\xd9}\xf9\x1d@'
p9415
tp9416
Rp9417
aa(lp9418
S'znte_r-cdse_a-cdse'
p9419
ag3
(g7
S'd\x92\xc7B\xbf`\x1e@'
p9420
tp9421
Rp9422
aa(lp9423
S'znte_r-cdse_a-cdte'
p9424
ag3
(g7
S'\x0fk0R\x9b\xe0\x1e@'
p9425
tp9426
Rp9427
aa(lp9428
S'znte_r-cdse_a-hgs'
p9429
ag3
(g7
S'\x80\xa5h\xa9\x9b\xf7\x1d@'
p9430
tp9431
Rp9432
aa(lp9433
S'znte_r-cdse_a-hgse'
p9434
ag3
(g7
S'P!Ks\xecc\x1e@'
p9435
tp9436
Rp9437
aa(lp9438
S'znte_r-cdse_a-hgte'
p9439
ag3
(g7
S'Wcq\xf5^\xef\x1e@'
p9440
tp9441
Rp9442
aa(lp9443
S'znte_r-cdse_a-zns'
p9444
ag3
(g7
S'\x9f3@\x12L%\x1d@'
p9445
tp9446
Rp9447
aa(lp9448
S'znte_r-cdse_a-znse'
p9449
ag3
(g7
S"\x14\xb0\x80D'\xb2\x1d@"
p9450
tp9451
Rp9452
aa(lp9453
S'znte_r-cdse_a-znte'
p9454
ag3
(g7
S'1\xbc\xe2\xde\xa9W\x1e@'
p9455
tp9456
Rp9457
aa(lp9458
S'znte_r-cdte_a-cds'
p9459
ag3
(g7
S'{\xc5\x02[\x12\xb2\x1a@'
p9460
tp9461
Rp9462
aa(lp9463
S'znte_r-cdte_a-cdse'
p9464
ag3
(g7
S'\x07{r\xe6\x89\xcb\x1a@'
p9465
tp9466
Rp9467
aa(lp9468
S'znte_r-cdte_a-cdte'
p9469
ag3
(g7
S'\x17\t\x06yF\xae\x1a@'
p9470
tp9471
Rp9472
aa(lp9473
S'znte_r-cdte_a-hgs'
p9474
ag3
(g7
S'\xc8I\xa5\x00\xec\x9c\x1a@'
p9475
tp9476
Rp9477
aa(lp9478
S'znte_r-cdte_a-hgse'
p9479
ag3
(g7
S'\xb7\xd4\xdf\xa5\x19\xce\x1a@'
p9480
tp9481
Rp9482
aa(lp9483
S'znte_r-cdte_a-hgte'
p9484
ag3
(g7
S'\xaa\x96\x12\x14\xae\xbc\x1a@'
p9485
tp9486
Rp9487
aa(lp9488
S'znte_r-cdte_a-zns'
p9489
ag3
(g7
S'\xb1\xbc!4k\x9c\x1a@'
p9490
tp9491
Rp9492
aa(lp9493
S'znte_r-cdte_a-znse'
p9494
ag3
(g7
S'\x99\xb2\x1b\xf2\x0e\x9e\x1a@'
p9495
tp9496
Rp9497
aa(lp9498
S'znte_r-cdte_a-znte'
p9499
ag3
(g7
S'\xcd\xa4\x9a\x9dx\xb0\x1a@'
p9500
tp9501
Rp9502
aa(lp9503
S'znte_r-hgs_a-cds'
p9504
ag3
(g7
S'\x9a\rr\x85/\xd8$@'
p9505
tp9506
Rp9507
aa(lp9508
S'znte_r-hgs_a-cdse'
p9509
ag3
(g7
S'p\x16OBLO%@'
p9510
tp9511
Rp9512
aa(lp9513
S'znte_r-hgs_a-cdte'
p9514
ag3
(g7
S'4{\xd6+6\xf0%@'
p9515
tp9516
Rp9517
aa(lp9518
S'znte_r-hgs_a-hgs'
p9519
ag3
(g7
S'Q\x1a\xdas\t\xda$@'
p9520
tp9521
Rp9522
aa(lp9523
S'znte_r-hgs_a-hgse'
p9524
ag3
(g7
S'\x89:\x86\x12\xdfM%@'
p9525
tp9526
Rp9527
aa(lp9528
S'znte_r-hgs_a-hgte'
p9529
ag3
(g7
S'\xa3|\xb8\xcfn\xf0%@'
p9530
tp9531
Rp9532
aa(lp9533
S'znte_r-hgs_a-zns'
p9534
ag3
(g7
S'\xe8]\x83\xe1\x8e!$@'
p9535
tp9536
Rp9537
aa(lp9538
S'znte_r-hgs_a-znse'
p9539
ag3
(g7
S'3B\xb0y\xff\x92$@'
p9540
tp9541
Rp9542
aa(lp9543
S'znte_r-hgs_a-znte'
p9544
ag3
(g7
S'\xf5\xb76:\xcbM%@'
p9545
tp9546
Rp9547
aa(lp9548
S'znte_r-hgse_a-cds'
p9549
ag3
(g7
S'\xc8\x0eD\xd0\xfaf#@'
p9550
tp9551
Rp9552
aa(lp9553
S'znte_r-hgse_a-cdse'
p9554
ag3
(g7
S'r\xea\xd4\x92g\xbe#@'
p9555
tp9556
Rp9557
aa(lp9558
S'znte_r-hgse_a-cdte'
p9559
ag3
(g7
S'\xd9i\x8d\xfd\x081$@'
p9560
tp9561
Rp9562
aa(lp9563
S'znte_r-hgse_a-hgs'
p9564
ag3
(g7
S'F\x8cs\x8d<c#@'
p9565
tp9566
Rp9567
aa(lp9568
S'znte_r-hgse_a-hgse'
p9569
ag3
(g7
S'k\x00\x06\xbf"\xbd#@'
p9570
tp9571
Rp9572
aa(lp9573
S'znte_r-hgse_a-hgte'
p9574
ag3
(g7
S'\xfa\x94+\x92\xfb<$@'
p9575
tp9576
Rp9577
aa(lp9578
S'znte_r-hgse_a-zns'
p9579
ag3
(g7
S'\x1baq\xa3U\xee"@'
p9580
tp9581
Rp9582
aa(lp9583
S'znte_r-hgse_a-znse'
p9584
ag3
(g7
S'\x01\xa0\xaa\xdd@7#@'
p9585
tp9586
Rp9587
aa(lp9588
S'znte_r-hgse_a-znte'
p9589
ag3
(g7
S'#\xdd\xb9\xd2\x8c\xbf#@'
p9590
tp9591
Rp9592
aa(lp9593
S'znte_r-hgte_a-cds'
p9594
ag3
(g7
S'\xf2\x01]=\x026"@'
p9595
tp9596
Rp9597
aa(lp9598
S'znte_r-hgte_a-cdse'
p9599
ag3
(g7
S'>\x932\x0b\x05F"@'
p9600
tp9601
Rp9602
aa(lp9603
S'znte_r-hgte_a-cdte'
p9604
ag3
(g7
S'%M\xd1\x93j:"@'
p9605
tp9606
Rp9607
aa(lp9608
S'znte_r-hgte_a-hgs'
p9609
ag3
(g7
S'k\xd0\x88\nl\'"@'
p9610
tp9611
Rp9612
aa(lp9613
S'znte_r-hgte_a-hgse'
p9614
ag3
(g7
S'\xb5\x8d\xda\xb7\xfcG"@'
p9615
tp9616
Rp9617
aa(lp9618
S'znte_r-hgte_a-hgte'
p9619
ag3
(g7
S'8\x1aV\\?C"@'
p9620
tp9621
Rp9622
aa(lp9623
S'znte_r-hgte_a-zns'
p9624
ag3
(g7
S'{\xa0i\xfc\x14+"@'
p9625
tp9626
Rp9627
aa(lp9628
S'znte_r-hgte_a-znse'
p9629
ag3
(g7
S'\xa5\xbb8Xw+"@'
p9630
tp9631
Rp9632
aa(lp9633
S'znte_r-hgte_a-znte'
p9634
ag3
(g7
S'\xeb\xb5\xc5\xa6\x19:"@'
p9635
tp9636
Rp9637
aa(lp9638
S'znte_r-zns_a-cds'
p9639
ag3
(g7
S'8\xf3\xcf\xdcr\xba\n@'
p9640
tp9641
Rp9642
aa(lp9643
S'znte_r-zns_a-cdse'
p9644
ag3
(g7
S'o\x1bON\x93;\n@'
p9645
tp9646
Rp9647
aa(lp9648
S'znte_r-zns_a-cdte'
p9649
ag3
(g7
S'\xd0\x8c>\x1c\x98Q\n@'
p9650
tp9651
Rp9652
aa(lp9653
S'znte_r-zns_a-hgs'
p9654
ag3
(g7
S'\xcf\x8b\xa6\xf0\x0b\x03\x0b@'
p9655
tp9656
Rp9657
aa(lp9658
S'znte_r-zns_a-hgse'
p9659
ag3
(g7
S'\xde\xf3\xbf\xff\xc0M\n@'
p9660
tp9661
Rp9662
aa(lp9663
S'znte_r-zns_a-hgte'
p9664
ag3
(g7
S'\x1b\xff<\xffA/\n@'
p9665
tp9666
Rp9667
aa(lp9668
S'znte_r-zns_a-zns'
p9669
ag3
(g7
S'\xa0w%V\x8b\xc8\n@'
p9670
tp9671
Rp9672
aa(lp9673
S'znte_r-zns_a-znse'
p9674
ag3
(g7
S'\xaa?\x04\xea\xfb\xd2\n@'
p9675
tp9676
Rp9677
aa(lp9678
S'znte_r-zns_a-znte'
p9679
ag3
(g7
S'g\xfa\x87\xee\xaf\xbf\n@'
p9680
tp9681
Rp9682
aa(lp9683
S'znte_r-znse_a-cds'
p9684
ag3
(g7
S'r\xb1\xa4~65\x01@'
p9685
tp9686
Rp9687
aa(lp9688
S'znte_r-znse_a-cdse'
p9689
ag3
(g7
S')\xec\x1a\xbf\xdf\x0e\x01@'
p9690
tp9691
Rp9692
aa(lp9693
S'znte_r-znse_a-cdte'
p9694
ag3
(g7
S'\xaf\xf7m\xe19\x1e\x01@'
p9695
tp9696
Rp9697
aa(lp9698
S'znte_r-znse_a-hgs'
p9699
ag3
(g7
S'\xf6\xd7\xcdJ(}\x01@'
p9700
tp9701
Rp9702
aa(lp9703
S'znte_r-znse_a-hgse'
p9704
ag3
(g7
S'`\x1f]\x87\x12\x18\x01@'
p9705
tp9706
Rp9707
aa(lp9708
S'znte_r-znse_a-hgte'
p9709
ag3
(g7
S'Pd\x94\xac\xfe\xf5\x00@'
p9710
tp9711
Rp9712
aa(lp9713
S'znte_r-znse_a-zns'
p9714
ag3
(g7
S'\x88\xa7\xf1\xecsm\x01@'
p9715
tp9716
Rp9717
aa(lp9718
S'znte_r-znse_a-znse'
p9719
ag3
(g7
S'^e\xa09\ns\x01@'
p9720
tp9721
Rp9722
aa(lp9723
S'znte_r-znse_a-znte'
p9724
ag3
(g7
S'\x96\x10\x0e*\x96K\x01@'
p9725
tp9726
Rp9727
aa.